(dp1
S'output'
p2
S'missing "pass" in view'
p3
sS'layer'
p4
S'ParserContainer'
p5
sS'code'
p6
S'response.write(\'<!DOCTYPE html>\\r\\n<!--[if (gt IE 9)|!(IE)]><!--> <html class="no-js" lang="\', escape=False)\nresponse.write(T.accepted_language or \'en\')\nresponse.write(\'"> <!--<![endif]-->\\r\\n  <head>\\r\\n    <meta charset="utf-8">\\r\\n    <!-- www.phpied.com/conditional-comments-block-downloads/ -->\\r\\n    <!-- Always force latest IE rendering engine\\r\\n         (even in intranet) & Chrome Frame\\r\\n         Remove this if you use the .htaccess -->\\r\\n    <meta http-equiv="X-UA-Compatible" content="IE=edge\', escape=False)\nresponse.write(not request.is_local and \',chrome=1\' or \'\')\nresponse.write(\'">\\r\\n    <!--  Mobile Viewport Fix\\r\\n          j.mp/mobileviewport & davidbcalhoun.com/2010/viewport-metatag\\r\\n          device-width: Occupy full width of the screen in its current orientation\\r\\n          initial-scale = 1.0 retains dimensions instead of zooming out if page height > device height\\r\\n          user-scalable = yes allows the user to zoom in -->\\r\\n    <meta name="viewport" content="width=device-width, initial-scale=1.0">\\r\\n    <title>\', escape=False)\nresponse.write(response.title or request.application)\nresponse.write(\'</title>\\r\\n    <!-- http://dev.w3.org/html5/markup/meta.name.html -->\\r\\n    <meta name="application-name" content="\', escape=False)\nresponse.write(request.application)\nresponse.write(\'">\\r\\n    <!-- Speaking of Google, don\\\'t forget to set your site up:\\r\\n         http://google.com/webmasters -->\\r\\n    <meta name="google-site-verification" content="">\\r\\n    <!-- include stylesheets -->\\r\\n    <link rel="stylesheet" href="\', escape=False)\nresponse.write(URL(\'static\',\'css/bootstrap.min.css\'))\nresponse.write(\'"/>\\r\\n    <link rel="stylesheet" href="\', escape=False)\nresponse.write(URL(\'static\',\'css/bootstrap-theme.min.css\'))\nresponse.write(\'"/>\\r\\n    <link rel="stylesheet" href="\', escape=False)\nresponse.write(URL(\'static\',\'css/web2py-bootstrap3.css\'))\nresponse.write(\'"/>\\r\\n    <link rel="stylesheet" href="\', escape=False)\nresponse.write(URL(\'static\',\'css/myapp.css\'))\nresponse.write(\'"/>\\r\\n    <link rel="stylesheet" href="\', escape=False)\nresponse.write(URL(\'static\',\'css/pinterest_style.css\'))\nresponse.write(\'"/>\\r\\n    <link rel="stylesheet" href="\', escape=False)\nresponse.write(URL(\'static\', \'font-awesome-4.4.0/css/font-awesome.min.css\'))\nresponse.write(\'"/>\\r\\n      <!--gallery-->\\r\\n\\r\\n      <!--my navmenu-->\\r\\n    <link rel="stylesheet" type="text/css" href="\', escape=False)\nresponse.write(URL(\'static\', \'slide_menu_css/component.css\'))\nresponse.write(\'"/>\\r\\n    <link rel="shortcut icon" href="\', escape=False)\nresponse.write(URL(\'static\',\'images/favicon.ico\'))\nresponse.write(\'" type="image/x-icon">\\r\\n    <link rel="apple-touch-icon" href="\', escape=False)\nresponse.write(URL(\'static\',\'images/favicon.png\'))\nresponse.write(\'">\\r\\n    <script src="\', escape=False)\nresponse.write(URL(\'static\', \'slide_menu_js/modernizr.custom.js\'))\nresponse.write(\'"></script>\\r\\n    <!-- All JavaScript at the bottom, except for Modernizr which enables\\r\\n         HTML5 elements & feature detects -->\\r\\n    <script src="\', escape=False)\nresponse.write(URL(\'static\',\'js/modernizr-2.8.3.min.js\'))\nresponse.write(\'"></script>\\r\\n    <!--[if lt IE 9]>\\r\\n        <script src="\', escape=False)\nresponse.write(URL(\'static\',\'js/respond-1.4.2.min.js\'))\nresponse.write(\'"></script>\\r\\n        <![endif]-->\\r\\n    <!-- Favicons -->\\r\\n    \', escape=False)\nresponse.write(\'<script type="text/javascript"><!--\\r\\n    // These variables are used by the web2py_ajax_init function in web2py_ajax.js (which is loaded below).\\r\\n    var w2p_ajax_confirm_message = "\', escape=False)\nresponse.write(T(\'Are you sure you want to delete this object?\'))\nresponse.write(\'";\\r\\n    var w2p_ajax_disable_with_message = "\', escape=False)\nresponse.write(T(\'Working...\'))\nresponse.write(\'";\\r\\n    var w2p_ajax_date_format = "\', escape=False)\nresponse.write(T(\'%Y-%m-%d\'))\nresponse.write(\'";\\r\\n    var w2p_ajax_datetime_format = "\', escape=False)\nresponse.write(T(\'%Y-%m-%d %H:%M:%S\'))\nresponse.write(\'";\\r\\n    var ajax_error_500 = \\\'\', escape=False)\nresponse.write(T.M(\'An error occured, please [[reload %s]] the page\') % URL(args=request.args, vars=request.get_vars))\nresponse.write("\'\\r\\n    //--></script>\\r\\n", escape=False)\nresponse.files.insert(0,URL(\'static\',\'js/jquery.js\'))\nresponse.files.insert(1,URL(\'static\',\'css/calendar.css\'))\nresponse.files.insert(2,URL(\'static\',\'js/calendar.js\'))\nresponse.files.insert(3,URL(\'static\',\'js/web2py.js\'))\nresponse.include_meta()\nresponse.include_files()\nresponse.write(\'\\r\\n\', escape=False)\nresponse.write(\' <!-- this includes jquery.js, calendar.js/.css and web2py.js -->\\r\\n    \', escape=False)\nresponse.write(\'\\r\\n    \', escape=False)\n# using sidebars need to know what sidebar you want to use\nmc0 = \'col-md-12\'\nmc1 = \'col-md-9\'\nmc2 = \'col-md-6\'\nleft_sidebar_enabled = globals().get(\'left_sidebar_enabled\', False)\nright_sidebar_enabled = globals().get(\'right_sidebar_enabled\', False)\nmiddle_column = {0: mc0, 1: mc1, 2: mc2}[\n(left_sidebar_enabled and 1 or 0)+(right_sidebar_enabled and 1 or 0)]\nresponse.write(\'\\r\\n  </head>\\r\\n  <body>\\r\\n\\r\\n    <style>\\r\\n        #showLeft {\\r\\n            font-size: 2.5em;\\r\\n            margin-left: 40px;\\r\\n            cursor: pointer;\\r\\n            color: white;\\r\\n        }\\r\\n        #hideLeft {\\r\\n            font-size: 1em;\\r\\n            cursor:pointer;\\r\\n            margin-left: 35px;\\r\\n            color: #f7f7f7;\\r\\n        }\\r\\n        #menu_bar {\\r\\n            background-image: url("https://abs.twimg.com/a/1449191867/img/t1/lohp_streams_header_bg_v4.png");\\r\\n            /*background-size: cover;*/\\r\\n            padding: 20px 4px 55px 4px;\\r\\n            background-size: cover;\\r\\n            /*fix at top*/\\r\\n            position: fixed;\\r\\n            top: 0;\\r\\n            left: 0;\\r\\n            z-index: 999;\\r\\n            width: 100%;\\r\\n            height: 23px;\\r\\n        }\\r\\n        #login_buttons {\\r\\n            float: right;\\r\\n            margin-right: 20px;\\r\\n        }\\r\\n    </style>\\r\\n    <!--[if lt IE 8]><p class="browserupgrade">You are using an <strong>outdated</strong> browser. Please <a href="http://browsehappy.com/">upgrade your browser</a> to improve your experience.</p><![endif]-->\\r\\n    <div class="flash alert alert-dismissable">\', escape=False)\nresponse.write(response.flash or \'\')\nresponse.write(\'</div>\\r\\n    <!-- Navbar ======================================= -->\\r\\n    <nav class="cbp-spmenu cbp-spmenu-vertical cbp-spmenu-left" id="cbp-spmenu-s1">\\r\\n        <h3>Menu <i id="hideLeft"  class="fa fa-times"></i></h3>\\r\\n\\r\\n        <a style="text-decoration: none;" href="\', escape=False)\nresponse.write(URL(\'default\',\'index.html\'))\nresponse.write(\'">Home</a>\\r\\n        <a style="text-decoration: none;" href="\', escape=False)\nresponse.write(URL(\'default\',\'show_posts/art\'))\nresponse.write(\'">Art</a>\\r\\n        <a style="text-decoration: none;" href="\', escape=False)\nresponse.write(URL(\'default\',\'show_posts/hiking\'))\nresponse.write(\'">Hiking</a>\\r\\n        <a style="text-decoration: none;" href="\', escape=False)\nresponse.write(URL(\'default\',\'show_posts/local_events\'))\nresponse.write(\'">Local Events</a>\\r\\n        <a style="text-decoration: none;" href="\', escape=False)\nresponse.write(URL(\'default\',\'show_posts/night_life\'))\nresponse.write(\'">Night Life</a>\\r\\n        <a style="text-decoration: none;" href="\', escape=False)\nresponse.write(URL(\'default\',\'show_posts/restaurants\'))\nresponse.write(\'">Restaurant</a>\\r\\n        <a style="text-decoration: none;" href="\', escape=False)\nresponse.write(URL(\'default\',\'show_posts/scenic\'))\nresponse.write(\'">Scenic</a>\\r\\n    </nav>\\r\\n    <div id="menu_bar">\\r\\n        <span>\\r\\n                <i id="showLeft" class="fa fa-bars"></i>\\r\\n        </span>\\r\\n        <span id="login_buttons">\\r\\n        \', escape=False)\nif auth.user_id is None:\n    response.write(\'\\r\\n              <!--shows the sign in sign out buttons-->\\r\\n              <span>\\r\\n                    \', escape=False)\n    response.write(A(\'Login\', _class=\'ghost-button\', _href=URL(\'default\', \'user\', args=[\'login\'])))\n    response.write(\'\\r\\n                    \', escape=False)\n    response.write(A(\'Sign Up\', _class=\'ghost-button\', _href=URL(\'default\', \'user\', args=[\'register\'])))\n    response.write(\'\\r\\n              </span>\\r\\n        \', escape=False)\nelse:\n    response.write(\'\\r\\n            <span>\\r\\n                  \', escape=False)\n    response.write(A(\'Edit Profile\', _class=\'ghost-button\', _href=URL(\'default\', \'user\', args=[\'profile\'])))\n    response.write(\'\\r\\n                   \', escape=False)\n    response.write(A(\'Logout\', _class=\'ghost-button\', _href=URL(\'default\', \'user\', args=[\'logout\'])))\n    response.write(\'\\r\\n            </span>\\r\\n        \', escape=False)\n    pass\nresponse.write(\'\\r\\n        </span>\\r\\n    </div>\\r\\n    <!-- Masthead ===================================== -->\\r\\n    \', escape=False)\nresponse.write(\'\\r\\n    \', escape=False)\nresponse.write(\'\\r\\n    <!-- Main ========================================= -->\\r\\n    <!-- Begin page content -->\\r\\n    <div class="container-fluid main-container">\\r\\n      <div class="\', escape=False)\nresponse.write(middle_column)\nresponse.write(\'">\\r\\n        \', escape=False)\nresponse.write(\'\\r\\n        \', escape=False)\nresponse.write(\'\\r\\n\\r\\n\\r\\n<div id="target"></div>\\r\\n\\r\\n<body class="cbp-spmenu-push">\\r\\n\\r\\n\\r\\n<script id="template" type="text/ractive">\\r\\n    \', escape=False)\nresponse.write(A(\'Go Back\', _class=\'back_button\', _href=URL(\'default\', \'show_boards\', args=[])))\nresponse.write(\'\\r\\n  <!--shows the sign in sign out buttons-->\\r\\n        <h1 class="post_header">\\r\\n        \', escape=False)\nif post_category == "Hiking":\n    response.write(\'\\r\\n        Hiking\\r\\n        \', escape=False)\nelse:\n    response.write(\'\\r\\n        Posts\\r\\n\\r\\n        </h1>\\r\\n\\r\\n  \', escape=False)\n    if auth.user_id is not None:\n        response.write(\'\\r\\n        <span style = "float:right">\\r\\n        \', escape=False)\n        response.write(A(\'Create Post\', _class=\'btn btn-success\', _href=URL(\'default\', \'add_posts\', args=[post_category])))\n        response.write(\'\\r\\n        </div>\\r\\n  \', escape=False)\n        pass\n    response.write(\'\\r\\n\\r\\n\\r\\n    <div class="dropdown">\\r\\n        Sort By:\\r\\n      <button class="btn btn-primary dropdown-toggle" type="button" data-toggle="dropdown">\\r\\n        {% #if sort_rated %}\\r\\n            Highest Rating\\r\\n        {% /if %}\\r\\n        {% #if sort_recent %}\\r\\n            Most Recent\\r\\n        {% /if %}\\r\\n\\r\\n      <span class="caret"></span></button>\\r\\n      <ul class="dropdown-menu">\\r\\n        <li class="hover_hand"><a on-click="loadposts:1">\\r\\n            {% #if sort_rated %}\\r\\n            <i class="fa fa-check"></i>\\r\\n            {% /if %}\\r\\n            Highest Rating\\r\\n        </a></li>\\r\\n        <li class="hover_hand"><a on-click="loadposts:2">\\r\\n            {% #if sort_recent %}\\r\\n            <i class="fa fa-check"></i>\\r\\n            {% /if %}\\r\\n            Most Recent\\r\\n        </a></li>\\r\\n      </ul>\\r\\n    </div>\\r\\n\\r\\n<div class="pin_wrapper">\\r\\n<div class="pin_columns">\\r\\n\\r\\n  {% #post_list %}\\r\\n\\r\\n    <div class = "pin hover_hand" on-click="go_to_post:{%id%},{%category%}" >\\r\\n        <p>\\r\\n        <p class="boardtitle">\\r\\n            {% title %}\\r\\n        </p>\\r\\n\\r\\n        <div class="boardbody">\\r\\n            {% #if user_id == \', escape=False)\n    response.write(auth.user_id)\n    response.write(\' %}\\r\\n                <p style="float: left">\\r\\n                <a href="\', escape=False)\n    response.write(URL(\'default\', \'posts_edit\'))\n    response.write(\'/{%id%}" ><i class="fa fa-pencil fa-2x"></i></a>\\r\\n                </p>\\r\\n                <p style="float: right">\\r\\n                <a href="\', escape=False)\n    response.write(URL(\'default\', \'delete_post\'))\n    response.write(\'/{%id%}/{%category%}" ><i class="fa fa-trash fa-2x"></i></a>\\r\\n                </p>\\r\\n            {% /if %}\\r\\n\\r\\n            {% #star_dict[id]%}\\r\\n                <i style = "color: #ffad33" class = "fa fa-star"></i>\\r\\n            {% /star_dict %}\\r\\n\\r\\n            {% #if half_star_dict[id] %}\\r\\n                <span style=" margin-left: -4px;">\\r\\n                <i style = "color: #ffad33" class = "fa fa-star-half-o"></i>\\r\\n                </span>\\r\\n            {% /if %}\\r\\n\\r\\n            <span style=" margin-left: -4px;">\\r\\n            {% #anti_star_dict[id]%}\\r\\n                <i style = "color: #ffad33;" class = "fa fa-star-o"></i>\\r\\n            {% /star_dict %}\\r\\n            </span>\\r\\n            ({% avg_rate %})\\r\\n            <div style="clear: both;"></div>\\r\\n            <p>\\r\\n            Posted On: {% created_on %}\\r\\n            </p>\\r\\n        </div>\\r\\n    </div>\\r\\n  {% /post_list %}\\r\\n </div>\\r\\n</div>\\r\\n\\r\\n  </script>\\r\\n\\r\\n<script>\\r\\n$(function() {\\r\\n\\r\\n  // Ractive object\\r\\n  var MAIN = new Ractive({\\r\\n    el: \\\'#target\\\',\\r\\n    template: \\\'#template\\\',\\r\\n    delimiters: [\\\'{%\\\', \\\'%}\\\'],\\r\\n    tripleDelimiters: [\\\'{%%\\\', \\\'%%}\\\'],\\r\\n    data: {\\r\\n        post_list: [],\\r\\n        star_dict: {},\\r\\n        anti_star_dict: {},\\r\\n        half_star_dict: {},\\r\\n        sort_rated: false,\\r\\n        sort_recent: false,\\r\\n        loading: false\\r\\n    }\\r\\n  });\\r\\n\\r\\n  // Loads the initial list of posts.\\r\\n  $.ajax("\', escape=False)\n    response.write(URL(\'default\', \'load_posts_recent\', user_signature=True, args=post_category))\n    response.write(\'",\\r\\n          {\\r\\n            method: \\\'POST\\\',\\r\\n            success: function (data) {\\r\\n                MAIN.set(\\\'post_list\\\', data[\\\'post_list\\\']);\\r\\n                MAIN.set(\\\'star_dict\\\', data[\\\'star_dict\\\']);\\r\\n                MAIN.set(\\\'anti_star_dict\\\', data[\\\'anti_star_dict\\\']);\\r\\n\\r\\n                MAIN.set(\\\'half_star_dict\\\', data[\\\'half_star_dict\\\']);\\r\\n\\r\\n\\r\\n                MAIN.set(\\\'sort_recent\\\', true);\\r\\n                MAIN.set(\\\'sort_rated\\\', false);\\r\\n            }\\r\\n          }\\r\\n  );\\r\\n\\r\\n    //loads the posts by rating or most recent depending on args\\r\\n    MAIN.on("loadposts", function(e, num){\\r\\n        if(num == 1) {\\r\\n             $.ajax("\', escape=False)\n    response.write(URL(\'default\', \'load_posts_rating\', user_signature=True, args=post_category))\n    response.write(\'",\\r\\n                      {\\r\\n                        method: \\\'POST\\\',\\r\\n                        success: function (data) {\\r\\n                            MAIN.set(\\\'post_list\\\', data[\\\'post_list\\\']);\\r\\n                            MAIN.set(\\\'star_dict\\\', data[\\\'star_dict\\\']);\\r\\n                            MAIN.set(\\\'anti_star_dict\\\', data[\\\'anti_star_dict\\\']);\\r\\n                            MAIN.set(\\\'half_star_dict\\\', data[\\\'half_star_dict\\\']);\\r\\n                            MAIN.set(\\\'loading\\\', false);\\r\\n\\r\\n                            MAIN.set(\\\'sort_recent\\\', false);\\r\\n                            MAIN.set(\\\'sort_rated\\\', true);\\r\\n                        }\\r\\n                      }\\r\\n              );\\r\\n\\r\\n        }\\r\\n        else if(num==2){\\r\\n            $.ajax("\', escape=False)\n    response.write(URL(\'default\', \'load_posts_recent\', user_signature=True, args=post_category))\n    response.write(\'",\\r\\n                      {\\r\\n                        method: \\\'POST\\\',\\r\\n                        success: function (data) {\\r\\n                            MAIN.set(\\\'post_list\\\', data[\\\'post_list\\\']);\\r\\n                            MAIN.set(\\\'star_dict\\\', data[\\\'star_dict\\\']);\\r\\n                            MAIN.set(\\\'anti_star_dict\\\', data[\\\'anti_star_dict\\\']);\\r\\n                            MAIN.set(\\\'half_star_dict\\\', data[\\\'half_star_dict\\\']);\\r\\n                            MAIN.set(\\\'loading\\\', false);\\r\\n\\r\\n                            MAIN.set(\\\'sort_recent\\\', true);\\r\\n                            MAIN.set(\\\'sort_rated\\\', false);\\r\\n                        }\\r\\n                      }\\r\\n              );\\r\\n        }\\r\\n    });\\r\\n\\r\\n    //goes to the page for that post\\r\\n    MAIN.on("go_to_post", function(e, post_id, category){\\r\\n        window.location.href = \\\'\', escape=False)\n    response.write(URL(\'default\', \'post_page\'))\n    response.write(\'\\\' + \\\'/\\\' + post_id + \\\'/\\\' + category;\\r\\n    });\\r\\n\\r\\n  // Called every 10s, checks for changes in posts and loads them\\r\\n  function periodic_load() {\\r\\n      var sort_recent = MAIN.get(\\\'sort_recent\\\');\\r\\n      var sort_rated = MAIN.get(\\\'sort_rated\\\');\\r\\n      if(sort_rated) {\\r\\n             $.ajax("\', escape=False)\n    response.write(URL(\'default\', \'load_posts_rating\', user_signature=True, args=post_category))\n    response.write(\'",\\r\\n                      {\\r\\n                        method: \\\'POST\\\',\\r\\n                        success: function (data) {\\r\\n                            MAIN.set(\\\'post_list\\\', data[\\\'post_list\\\']);\\r\\n                            MAIN.set(\\\'star_dict\\\', data[\\\'star_dict\\\']);\\r\\n                            MAIN.set(\\\'anti_star_dict\\\', data[\\\'anti_star_dict\\\']);\\r\\n                            MAIN.set(\\\'loading\\\', false);\\r\\n                        }\\r\\n                      }\\r\\n              );\\r\\n\\r\\n        }\\r\\n        else if(sort_recent){\\r\\n            $.ajax("\', escape=False)\n    response.write(URL(\'default\', \'load_posts_recent\', user_signature=True, args=post_category))\n    response.write(\'",\\r\\n                      {\\r\\n                        method: \\\'POST\\\',\\r\\n                        success: function (data) {\\r\\n                            MAIN.set(\\\'post_list\\\', data[\\\'post_list\\\']);\\r\\n                            MAIN.set(\\\'star_dict\\\', data[\\\'star_dict\\\']);\\r\\n                            MAIN.set(\\\'anti_star_dict\\\', data[\\\'anti_star_dict\\\']);\\r\\n                            MAIN.set(\\\'loading\\\', false);\\r\\n                        }\\r\\n                      }\\r\\n              );\\r\\n        }\\r\\n  }\\r\\n\\r\\n  setInterval(periodic_load, 10000);\\r\\n\\r\\n});\\r\\n</script>\\r\\n\\r\\n</body>\\r\\n\\r\\n\\r\\n\\r\\n\\r\\n\\r\\n\', escape=False)\n    response.write(\'\\r\\n        \', escape=False)\n    response.write(\'\\r\\n      </div>\\r\\n    </div>\\r\\n\\r\\n\\r\\n    <!-- Classie - class helper functions by @desandro https://github.com/desandro/classie -->\\r\\n\\t\\t<script src="\', escape=False)\n    response.write(URL(\'static\', \'slide_menu_js/classie.js\'))\n    response.write(\'"></script>\\r\\n\\t\\t<script>\\r\\n\\t\\t\\tvar menuLeft = document.getElementById( \\\'cbp-spmenu-s1\\\' ),\\r\\n\\t\\t\\t\\tshowLeft = document.getElementById( \\\'showLeft\\\' ),\\r\\n                hideLeft = document.getElementById( \\\'hideLeft\\\' ),\\r\\n\\t\\t\\t\\tbody = document.body;\\r\\n\\r\\n            showLeft.onclick = function() {\\r\\n                showLeft.style.opacity = 0;\\r\\n\\t\\t\\t\\tclassie.toggle( body, \\\'cbp-spmenu-push-toright\\\' );\\r\\n\\t\\t\\t\\tclassie.toggle( menuLeft, \\\'cbp-spmenu-open\\\' );\\r\\n\\t\\t\\t};\\r\\n\\r\\n            hideLeft.onclick = function() {\\r\\n                showLeft.style.opacity = 100;\\r\\n                classie.toggle( body, \\\'cbp-spmenu-push-toright\\\' );\\r\\n\\t\\t\\t\\tclassie.toggle( menuLeft, \\\'cbp-spmenu-open\\\' );\\r\\n\\t\\t\\t};\\r\\n\\t\\t</script>\\r\\n\\r\\n\\r\\n    <!-- The javascript =============================== -->\\r\\n    <script src="\', escape=False)\n    response.write(URL(\'static\',\'js/bootstrap.min.js\'))\n    response.write(\'"></script>\\r\\n    <script src="\', escape=False)\n    response.write(URL(\'static\',\'js/web2py-bootstrap3.js\'))\n    response.write(\'"></script>\\r\\n    <script src="\', escape=False)\n    response.write(URL(\'static\', \'js/ractive.min.js\'))\n    response.write(\'"></script>\\r\\n\\r\\n    <!--maps-->\\r\\n    <script src="https://maps.googleapis.com/maps/api/js"></script>\\r\\n\\r\\n\\r\\n\\r\\n\\r\\n    \', escape=False)\n    response.write(\'\\r\\n    \', escape=False)\n    if response.google_analytics_id:\n        response.write(\'\\r\\n    <!-- Analytics ==================================== -->\\r\\n    <script src="\', escape=False)\n        response.write(URL(\'static\',\'js/analytics.min.js\'))\n        response.write(\'"></script>\\r\\n    <script type="text/javascript">\\r\\n      analytics.initialize({\\r\\n      \\\'Google Analytics\\\':{trackingId:\\\'\', escape=False)\n        response.write(response.google_analytics_id)\n        response.write("\'}\\r\\n      });\\r\\n    </script>\\r\\n    ", escape=False)\n        pass\n    response.write(\'\\r\\n    <!-- Share ============================y============ -->\\r\\n    <script src="\', escape=False)\n    response.write(URL(\'static\',\'js/share.js\',vars=dict(static=URL(\'static\',\'images\'))))\n    response.write(\'"></script>\\r\\n  </body>\\r\\n</html>\\r\\n\', escape=False)'
p7
sS'snapshot'
p8
(dp9
S'exception'
p10
(dp11
S'__module__'
p12
S"'gluon.rocket'"
p13
sS'__getslice__'
p14
S"<method-wrapper '__getslice__' of SocketTimeout object>"
p15
sS'__str__'
p16
S"<method-wrapper '__str__' of SocketTimeout object>"
p17
sS'__reduce__'
p18
S'<built-in method __reduce__ of SocketTimeout object>'
p19
sS'__dict__'
p20
S'{}'
p21
sS'__sizeof__'
p22
S'<built-in method __sizeof__ of SocketTimeout object>'
p23
sS'__weakref__'
p24
S'None'
p25
sS'__init__'
p26
S"<method-wrapper '__init__' of SocketTimeout object>"
p27
sS'__setattr__'
p28
S"<method-wrapper '__setattr__' of SocketTimeout object>"
p29
sS'__reduce_ex__'
p30
S'<built-in method __reduce_ex__ of SocketTimeout object>'
p31
sS'__new__'
p32
S'<built-in method __new__ of type object>'
p33
sS'__format__'
p34
S'<built-in method __format__ of SocketTimeout object>'
p35
sS'__class__'
p36
S"<class 'gluon.rocket.SocketTimeout'>"
p37
sS'__doc__'
p38
S"'Exception for when a socket times out between requests.'"
p39
sS'__getitem__'
p40
S"<method-wrapper '__getitem__' of SocketTimeout object>"
p41
sS'__setstate__'
p42
S'<built-in method __setstate__ of SocketTimeout object>'
p43
sS'__getattribute__'
p44
S"<method-wrapper '__getattribute__' of SocketTimeout object>"
p45
sS'args'
p46
S"('Socket timed out before request.',)"
p47
sS'__subclasshook__'
p48
S'<built-in method __subclasshook__ of type object>'
p49
sS'__unicode__'
p50
S'<built-in method __unicode__ of SocketTimeout object>'
p51
sS'__delattr__'
p52
S"<method-wrapper '__delattr__' of SocketTimeout object>"
p53
sS'__repr__'
p54
S"<method-wrapper '__repr__' of SocketTimeout object>"
p55
sS'__hash__'
p56
S"<method-wrapper '__hash__' of SocketTimeout object>"
p57
ssS'evalue'
p58
S'Socket timed out before request.'
p59
sS'frames'
p60
(lp61
(dp62
S'file'
p63
S'C:\\Users\\Taoh\\Desktop\\git\\Project-cmps183\\web2py\\gluon\\rocket.py'
p64
sS'dump'
p65
(dp66
S'self'
p67
S'<WSGIWorker(Thread-11, started daemon 4124)>'
p68
sS'conn'
p69
S'<gluon.rocket.Connection object>'
p70
sS'self.run_app'
p71
S'<bound method WSGIWorker.run_app of <WSGIWorker(Thread-11, started daemon 4124)>>'
p72
ssS'lnum'
p73
I1337
sS'lines'
p74
(dp75
I1332
S'            # Enter connection serve loop'
p76
sI1333
S'            while True:'
p77
sI1334
S'                if __debug__:'
p78
sI1335
S"                    self.err_log.debug('Serving a request')"
p79
sI1336
S'                try:'
p80
sI1337
S'                    self.run_app(conn)'
p81
sI1338
S'                except:'
p82
sI1339
S'                    exc = sys.exc_info()'
p83
sI1340
S'                    handled = self._handleError(*exc)'
p84
sI1341
S'                    if handled:'
p85
ssS'call'
p86
S'(self=<WSGIWorker(Thread-11, started daemon 4124)>)'
p87
sS'func'
p88
S'run'
p89
sa(dp90
g63
S'C:\\Users\\Taoh\\Desktop\\git\\Project-cmps183\\web2py\\gluon\\rocket.py'
p91
sg65
(dp92
S'self'
p93
S'<WSGIWorker(Thread-11, started daemon 4124)>'
p94
sS'self.environ'
p95
S"{'HTTP_ACCEPT': 'text/html,application/xhtml+xml,application/xml;q=0.9,image/webp,*/*;q=0.8', 'HTTP_ACCEPT_ENCODING': 'gzip, deflate, sdch', 'HTTP_ACCEPT_LANGUAGE': 'en-US,en;q=0.8', 'HTTP_CACHE_CONTROL': 'max-age=0', 'HTTP_CONNECTION': 'keep-alive', 'HTTP_COOKIE': 'session_id_email_hw=127.0.0.1-2b132796-2cfd-476f...ct=127.0.0.1-a5bf6986-8313-410a-988a-c8ed65085fc5', 'HTTP_HOST': '127.0.0.1:8800', 'HTTP_REFERER': 'http://127.0.0.1:8800/cmps183_project/default/show_boards', 'HTTP_UPGRADE_INSECURE_REQUESTS': '1', 'HTTP_USER_AGENT': 'Mozilla/5.0 (Windows NT 10.0; WOW64) AppleWebKit...ML, like Gecko) Chrome/47.0.2526.73 Safari/537.36', ...}"
p96
sS'sock_file'
p97
S'<socket._fileobject object>'
p98
sS'environ'
p99
S'undefined'
p100
sS'self.build_environ'
p101
S'<bound method WSGIWorker.build_environ of <WSGIWorker(Thread-11, started daemon 4124)>>'
p102
sS'conn'
p103
S'<gluon.rocket.Connection object>'
p104
ssg73
I1830
sg74
(dp105
I1825
S'        else:'
p106
sI1826
S'            sock_file = conn.makefile(BUF_SIZE)'
p107
sI1827
S''
sI1828
S'        try:'
p108
sI1829
S'            # Read the headers and build our WSGI environment'
p109
sI1830
S'            self.environ = environ = self.build_environ(sock_file, conn)'
p110
sI1831
S''
sI1832
S'            # Handle 100 Continue'
p111
sI1833
S"            if environ.get('HTTP_EXPECT', '') == '100-continue':"
p112
sI1834
S"                res = environ['SERVER_PROTOCOL'] + ' 100 Continue\\r\\n\\r\\n'"
p113
ssg86
S'(self=<WSGIWorker(Thread-11, started daemon 4124)>, conn=<gluon.rocket.Connection object>)'
p114
sg88
S'run_app'
p115
sa(dp116
g63
S'C:\\Users\\Taoh\\Desktop\\git\\Project-cmps183\\web2py\\gluon\\rocket.py'
p117
sg65
(dp118
S'sock_file'
p119
S'<socket._fileobject object>'
p120
sS'self.read_request_line'
p121
S'<bound method WSGIWorker.read_request_line of <WSGIWorker(Thread-11, started daemon 4124)>>'
p122
sS'self'
p123
S'<WSGIWorker(Thread-11, started daemon 4124)>'
p124
sS'request'
p125
g100
ssg73
I1650
sg74
(dp126
I1645
S'                                      "wsgiorg.futures": executor.futures})'
p127
sI1646
S''
sI1647
S'    def build_environ(self, sock_file, conn):'
p128
sI1648
S'        """ Build the execution environment. """'
p129
sI1649
S'        # Grab the request line'
p130
sI1650
S'        request = self.read_request_line(sock_file)'
p131
sI1651
S''
sI1652
S'        # Copy the Base Environment'
p132
sI1653
S'        environ = self.base_environ.copy()'
p133
sI1654
S''
ssg86
S'(self=<WSGIWorker(Thread-11, started daemon 4124)>, sock_file=<socket._fileobject object>, conn=<gluon.rocket.Connection object>)'
p134
sg88
S'build_environ'
p135
sa(dp136
g63
S'C:\\Users\\Taoh\\Desktop\\git\\Project-cmps183\\web2py\\gluon\\rocket.py'
p137
sg65
(dp138
S'global SocketTimeout'
p139
S"<class 'gluon.rocket.SocketTimeout'>"
p140
ssg73
I1401
sg74
(dp141
I1396
S''
sI1397
S'                d = sock_file.readline()'
p142
sI1398
S'                if PY3K:'
p143
sI1399
S"                    d = d.decode('ISO-8859-1')"
p144
sI1400
S'        except socket.timeout:'
p145
sI1401
S"            raise SocketTimeout('Socket timed out before request.')"
p146
sI1402
S'        except TypeError:'
p147
sI1403
S'            raise SocketClosed('
p148
sI1404
S"                'SSL bug caused closure of socket.  See '"
p149
sI1405
S'                \'"https://groups.google.com/d/topic/web2py/P_Gw0JxWzCs".\')'
p150
ssg86
S'(self=<WSGIWorker(Thread-11, started daemon 4124)>, sock_file=<socket._fileobject object>)'
p151
sg88
S'read_request_line'
p152
sasS'pyver'
p153
S'Python 2.7.10: C:\\Python27\\python.exe (prefix: C:\\Python27)'
p154
sS'etype'
p155
S"<class 'gluon.rocket.SocketTimeout'>"
p156
sS'date'
p157
S'Thu Dec 10 01:40:51 2015'
p158
sS'locals'
p159
(dp160
S'sock_file'
p161
S'<socket._fileobject object>'
p162
sS'self'
p163
S'<WSGIWorker(Thread-11, started daemon 4124)>'
p164
sssS'traceback'
p165
S'Traceback (most recent call last):\n  File "C:\\Users\\Taoh\\Desktop\\git\\Project-cmps183\\web2py\\gluon\\rocket.py", line 1337, in run\n    self.run_app(conn)\n  File "C:\\Users\\Taoh\\Desktop\\git\\Project-cmps183\\web2py\\gluon\\rocket.py", line 1830, in run_app\n    self.environ = environ = self.build_environ(sock_file, conn)\n  File "C:\\Users\\Taoh\\Desktop\\git\\Project-cmps183\\web2py\\gluon\\rocket.py", line 1650, in build_environ\n    request = self.read_request_line(sock_file)\n  File "C:\\Users\\Taoh\\Desktop\\git\\Project-cmps183\\web2py\\gluon\\rocket.py", line 1401, in read_request_line\n    raise SocketTimeout(\'Socket timed out before request.\')\nSocketTimeout: Socket timed out before request.\n'
p166
s.