(dp1
S'output'
p2
S"<type 'exceptions.TypeError'> <bound method Rows.first of <Rows (0)>> is not JSON serializable"
p3
sS'layer'
p4
S'C:\\Users\\Taoh\\Desktop\\git\\Project-cmps183\\web2py\\applications\\cmps183_project\\controllers/default.py'
p5
sS'code'
p6
S'# -*- coding: utf-8 -*-\n# this file is released under public domain and you can use without limitations\n\n#########################################################################\n## This is a sample controller\n## - index is the default action of any application\n## - user is required for authentication and authorization\n## - download is for downloading files uploaded in the db (does streaming)\n#########################################################################\n\ndef deleteposts():\n    db(db.posts.id > 0).delete()\n    db(db.uploads.id > 0).delete()\n\ndef deletereviews():\n    db(db.reviews.id>0).delete()\n\ndef map():\n    return dict(postlist = [])\n\ndef index():\n    return dict()\n\ndef show_boards():\n    return dict()\n\n\ndef search_results():\n    search_text = request.body.read()\n    if(search_text == "keyword="):\n        session.flash = T(\'Please enter a post title.\')\n        redirect(\'search_results\')\n\n    def cutit(string, n):\n        return string[n:]\n\n    search_text = cutit(search_text, 8)\n\n    if (search_text != ""):\n        search_text = search_text.replace("+", " ")\n\n    post_list = db(db.posts.title.contains(search_text)).select()\n\n    for post in post_list:\n        # update the average review\n        count = db(db.reviews.post == post.id).count()\n        if count == 0:\n            break\n\n        reviews = db(db.reviews.post == post.id).select()\n        total = 0\n\n        for i in reviews:\n            total += i.num_stars\n        dub = float(\'%.2f\' % (total / float(count)))\n        db.posts(post.id).update_record(avg_rate=dub)\n\n    post_list = db(db.posts.title.contains(search_text)).select()\n    return dict(post_list=post_list, search_text=search_text)\n\n\n\ndef load_search_results():\n    search_text = request.args(0)\n    if search_text is None:\n        return response.json(dict(post_list=[], star_dict={}, anti_star_dict={},\n                                  half_star_dict={}, count=0))\n\n    search_text = search_text.replace("_", " ")\n\n    posts = db(db.posts.title.contains(search_text)).select()\n    count = db(db.posts.title.contains(search_text)).count()\n\n\n    star_dict = {}\n    anti_star_dict = {}\n    half_star_dict = {}\n\n    for post in posts:\n        if (post.avg_rate - int(post.avg_rate)) >= 0.5:\n            half_star_dict[post.id] = True\n            anti_star_dict[post.id] = range(0, int(4 - int(post.avg_rate)))\n        else:\n            anti_star_dict[post.id] = range(0, int(5 - int(post.avg_rate)))\n            half_star_dict[post.id] = False\n\n        star_dict[post.id] = range(0, int(post.avg_rate))\n\n    return response.json(dict(post_list=posts.as_list(), star_dict=star_dict, anti_star_dict=anti_star_dict,\n                                  half_star_dict=half_star_dict, count=count))\n\n# search posts\ndef post_selector():\n    if not request.vars.keyword: return \'\'\n\n    post_title = []\n    rows = db(db.posts).select()\n    for row in rows:\n       post_title.append(str(row.title))\n\n    print post_title\n\n    #query = db.posts.title.contains(request.vars.keyword)\n    #posts = db(query).select(orderby=db.posts.title)\n    post_start = request.vars.keyword.lower()\n    selected = [m for m in post_title if (post_start) in m.lower()]\n    return DIV(*[DIV(k,\n                     _onclick="jQuery(\'#keyword\').val(\'%s\')" % k,\n                     _onmouseover="this.style.backgroundColor=\'rgba(221, 221, 244, 0.71)\',"\n                                  "this.style.cursor=\'pointer\'",\n                     _onmouseout="this.style.backgroundColor=\'white\'",\n                     ) for k in selected],\n               _class="search_list"\n               )\n\n\ndef load_posts_rating():\n    post_category = request.args(0)\n    # print post_board_id\n    posts = db(db.posts.category == post_category).select(orderby=~db.posts.avg_rate)\n\n    star_dict = {}\n    anti_star_dict = {}\n    half_star_dict = {}\n\n    for post in posts:\n        if (post.avg_rate - int(post.avg_rate)) >= 0.5:\n            half_star_dict[post.id] = True\n            anti_star_dict[post.id] = range(0, int(4 - int(post.avg_rate)))\n        else:\n            anti_star_dict[post.id] = range(0, int(5 - int(post.avg_rate)))\n            half_star_dict[post.id] = False\n\n        star_dict[post.id] = range(0, int(post.avg_rate))\n\n    return response.json(dict(post_list=posts.as_list(), star_dict=star_dict, anti_star_dict=anti_star_dict, half_star_dict=half_star_dict))\n\ndef load_posts_recent():\n    category = request.args(0)\n    # print post_board_id\n    posts = db(db.posts.category == category).select(orderby=~db.posts.created_on)\n\n\n    images_dict = {}\n    star_dict = {}\n    anti_star_dict = {}\n    half_star_dict = {}\n\n    for post in posts:\n        if (post.avg_rate - int(post.avg_rate)) >= 0.5:\n            half_star_dict[post.id] = True\n            anti_star_dict[post.id] = range(0, int(4 - int(post.avg_rate)))\n        else:\n            anti_star_dict[post.id] = range(0, int(5 - int(post.avg_rate)))\n            half_star_dict[post.id] = False\n\n        images_dict[post.id] = db(db.uploads.post == post.id).select().first\n        star_dict[post.id] = range(0, int(post.avg_rate))\n\n\n    return response.json(dict(post_list=posts.as_list(), images_dict=images_dict, star_dict=star_dict, anti_star_dict=anti_star_dict, half_star_dict=half_star_dict))\n\ndef show_posts():\n    post_category = request.args(0)\n    post_list = db(db.posts.category == post_category).select()\n\n\n    for post in post_list:\n        # update the average review\n        count = db(db.reviews.post == post.id).count()\n        if count == 0:\n            break\n\n        reviews = db(db.reviews.post == post.id).select()\n        total = 0\n\n        for i in reviews:\n            total += i.num_stars\n        dub = float(\'%.2f\' % (total / float(count)))\n        db.posts(post.id).update_record(avg_rate=dub)\n\n    return dict(post_list=post_list, post_category=post_category)\n\n@auth.requires_login()\ndef add_posts():\n    logger.info("My session is: %r" % session)\n    form = SQLFORM(db.posts)\n\n    category = request.args(0)\n\n    form.vars.category = category\n    form.vars.user_id = auth.user_id\n\n    if form.process().accepted:\n        session.flash = T(\'the data was inserted\')\n        redirect(URL(\'default\',\'show_posts\', args=[category])) #might change to index\n    return dict(form=form)\n\n@auth.requires_login()\ndef posts_edit():\n    posts = db.posts(request.args(0))\n    if(auth.user_id != posts.user_id):\n         redirect(URL(\'default\', \'show_posts\', args=[posts.category]))\n         session.flash = T(\'Not permitted for this user\')\n    else:\n        form = SQLFORM(db.posts, record=posts, upload = URL(\'download\'))\n        if form.process().accepted:\n            session.flash = T(\'The data was edited\')\n            redirect(URL(\'default\', \'show_posts\', args=[posts.category]))\n        return dict(form=form)\n\n#delete post\n@auth.requires_login()\ndef delete_post():\n    post = db.posts(request.args(0))\n    if (auth.user_id != post.user_id):\n        redirect(URL(\'default\', \'show_posts\', args=request.args(1)))\n        session.flash = T(\'Not permitted for this user\')\n    else:\n        db(db.uploads.post == post).delete()\n        db(db.posts.id == post).delete()\n        redirect(URL(\'default\',\'show_posts\', args=request.args(1)))\n\n\ndef post_page():\n    post_id = request.args(0)\n    board = db.posts(post_id).category\n    post = db.posts[post_id]\n    title = post.title\n    body = post.body\n    reviews = db(db.reviews.post == post_id).select()\n    num_rev = db(db.reviews.post == post_id).count()\n    # print "numrev" + str(num_rev)\n    images = db(db.uploads.post == post_id).select()\n    return dict(post = post, reviews=reviews, num_rev=num_rev, title=title, body= body, images = images, board=board)\n\n# upload images\ndef upload_images():\n    import datetime\n    form = FORM(LABEL("File(s):"), INPUT(_name=\'up_files\', _type=\'file\', _multiple=\'\', requires=IS_NOT_EMPTY()),  BR(),INPUT(_type=\'submit\'))\n    if form.accepts(request.vars, formname="form"):\n        files = request.vars[\'up_files\']\n        if not isinstance(files, list):\n            files = [files]\n        for f in files:\n            print f.filename\n            up_file = db.uploads.up_file.store(f, f.filename)\n            i = db.uploads.insert(notes=request.vars.notes, up_file=up_file, filename=f.filename, post = request.args(0), up_date= datetime.datetime.now())\n            db.commit()\n        redirect(URL(\'post_page\',args=request.args(0)))\n    return dict(form=form)\n\n@auth.requires_login()\ndef add_review():\n    form = SQLFORM(db.reviews)\n    form.vars.post = request.args(0)\n    form.vars.user_id = auth.user_id\n    if form.process().accepted:\n        session.flash = T(\'the data was inserted\')\n        redirect(URL(\'default\',\'post_page\', args=request.args(0)))\n    return dict(form=form)\n\n\ndef load_reviews():\n    post_board_id = request.args(0)\n    rows = db(db.reviews.post == post_board_id).select()\n\n    def get_name(user_id):\n        test = db(db.auth_user.id == user_id).select()\n        firstname = ""\n        lastname = ""\n        for i in test:\n            firstname = i.first_name\n            lastname =  i.last_name\n        return firstname + " " + lastname\n\n    d = {r.id: {\'body\': r.body,\n                \'user_id\': r.user_id,\n                \'user\': get_name(r.user_id),\n                \'num_stars\':r.num_stars,\n                \'star_list\': range(0,r.num_stars),\n                \'anti_star_list\': range(0, 5-r.num_stars),\n                \'post_id\':r.post\n                }\n\n         for r in rows}\n    return response.json(dict(review_dict=d))\n\n@auth.requires_login()\ndef delete_review():\n    rev_id = request.vars.get("rev_id")\n    db(db.reviews.id == rev_id).delete()\n    redirect(URL(\'default\', \'post_page\', args= request.vars.get("post")))\n\n\n@auth.requires_login()\ndef edit_review():\n    rev_id = request.args(0)\n    post_id = request.args(1)\n    user_id = request.args(2)\n\n\n    if int(auth.user_id) != int(user_id):\n        session.flash = T(\'Not permitted for this user\')\n        redirect(URL(\'default\', \'post_page\', args=[post_id]))\n\n    form = SQLFORM(db.reviews, record=rev_id)\n\n    if form.process().accepted:\n        session.flash = T(\'The data was edited\')\n        redirect(URL(\'default\', \'post_page\', args=[post_id]))\n    return dict(form=form)\n\n\ndef user():\n    """\n    exposes:\n    http://..../[app]/default/user/login\n    http://..../[app]/default/user/logout\n    http://..../[app]/default/user/register\n    http://..../[app]/default/user/profile\n    http://..../[app]/default/user/retrieve_password\n    http://..../[app]/default/user/change_password\n    http://..../[app]/default/user/manage_users (requires membership in\n    http://..../[app]/default/user/bulk_register\n    use @auth.requires_login()\n        @auth.requires_membership(\'group name\')\n        @auth.requires_permission(\'read\',\'table name\',record_id)\n    to decorate functions that need access control\n    """\n    return dict(form=auth())\n\n\n@cache.action()\ndef download():\n    """\n    allows downloading of uploaded files\n    http://..../[app]/default/download/[filename]\n    """\n    return response.download(request, db)\n\n\ndef call():\n    """\n    exposes services. for example:\n    http://..../[app]/default/call/jsonrpc\n    decorate with @services.jsonrpc the functions to expose\n    supports xml, json, xmlrpc, jsonrpc, amfrpc, rss, csv\n    """\n    return service()\n\n\n\n\nresponse._vars=response._caller(load_posts_recent)\n'
p7
sS'snapshot'
p8
(dp9
S'exception'
p10
(dp11
S'__hash__'
p12
S"<method-wrapper '__hash__' of exceptions.TypeError object>"
p13
sS'__setattr__'
p14
S"<method-wrapper '__setattr__' of exceptions.TypeError object>"
p15
sS'__reduce_ex__'
p16
S'<built-in method __reduce_ex__ of exceptions.TypeError object>'
p17
sS'__getslice__'
p18
S"<method-wrapper '__getslice__' of exceptions.TypeError object>"
p19
sS'__getitem__'
p20
S"<method-wrapper '__getitem__' of exceptions.TypeError object>"
p21
sS'__setstate__'
p22
S'<built-in method __setstate__ of exceptions.TypeError object>'
p23
sS'__reduce__'
p24
S'<built-in method __reduce__ of exceptions.TypeError object>'
p25
sS'__str__'
p26
S"<method-wrapper '__str__' of exceptions.TypeError object>"
p27
sS'__format__'
p28
S'<built-in method __format__ of exceptions.TypeError object>'
p29
sS'__getattribute__'
p30
S"<method-wrapper '__getattribute__' of exceptions.TypeError object>"
p31
sS'__class__'
p32
S"<type 'exceptions.TypeError'>"
p33
sS'__unicode__'
p34
S'<built-in method __unicode__ of exceptions.TypeError object>'
p35
sS'__delattr__'
p36
S"<method-wrapper '__delattr__' of exceptions.TypeError object>"
p37
sS'__subclasshook__'
p38
S'<built-in method __subclasshook__ of type object>'
p39
sS'__repr__'
p40
S"<method-wrapper '__repr__' of exceptions.TypeError object>"
p41
sS'__dict__'
p42
S'{}'
p43
sS'args'
p44
S"('<bound method Rows.first of <Rows (0)>> is not JSON serializable',)"
p45
sS'__sizeof__'
p46
S'<built-in method __sizeof__ of exceptions.TypeError object>'
p47
sS'__doc__'
p48
S"'Inappropriate argument type.'"
p49
sS'__init__'
p50
S"<method-wrapper '__init__' of exceptions.TypeError object>"
p51
sS'__new__'
p52
S'<built-in method __new__ of type object>'
p53
ssS'evalue'
p54
S'<bound method Rows.first of <Rows (0)>> is not JSON serializable'
p55
sS'request'
p56
cgluon.html
XML_unpickle
p57
(S's\xe4c\x00\x00<div><table><tr><td style="font-weight:bold;vertical-align:top;">ajax</td><td style="vertical-align:top;">:</td><td><div>True</div></td></tr><tr><td style="font-weight:bold;vertical-align:top;">application</td><td style="vertical-align:top;">:</td><td><div>cmps183_project</div></td></tr><tr><td style="font-weight:bold;vertical-align:top;">args</td><td style="vertical-align:top;">:</td><td><div><table><tr><td><div>art</div></td></tr></table></div></td></tr><tr><td style="font-weight:bold;vertical-align:top;">cid</td><td style="vertical-align:top;">:</td><td><div>None</div></td></tr><tr><td style="font-weight:bold;vertical-align:top;">client</td><td style="vertical-align:top;">:</td><td><div>127.0.0.1</div></td></tr><tr><td style="font-weight:bold;vertical-align:top;">controller</td><td style="vertical-align:top;">:</td><td><div>default</div></td></tr><tr><td style="font-weight:bold;vertical-align:top;">cookies</td><td style="vertical-align:top;">:</td><td><div><table><tr><td style="font-weight:bold;vertical-align:top;">session_id_admin</td><td style="vertical-align:top;">:</td><td><div>127.0.0.1-9acf578c-4f85-4176-b753-d205f1bd8f99<table><tr><td style="font-weight:bold;vertical-align:top;">comment</td><td style="vertical-align:top;">:</td><td><div></div></td></tr><tr><td style="font-weight:bold;vertical-align:top;">domain</td><td style="vertical-align:top;">:</td><td><div></div></td></tr><tr><td style="font-weight:bold;vertical-align:top;">expires</td><td style="vertical-align:top;">:</td><td><div></div></td></tr><tr><td style="font-weight:bold;vertical-align:top;">httponly</td><td style="vertical-align:top;">:</td><td><div></div></td></tr><tr><td style="font-weight:bold;vertical-align:top;">max-age</td><td style="vertical-align:top;">:</td><td><div></div></td></tr><tr><td style="font-weight:bold;vertical-align:top;">path</td><td style="vertical-align:top;">:</td><td><div></div></td></tr><tr><td style="font-weight:bold;vertical-align:top;">secure</td><td style="vertical-align:top;">:</td><td><div></div></td></tr><tr><td style="font-weight:bold;vertical-align:top;">version</td><td style="vertical-align:top;">:</td><td><div></div></td></tr></table></div></td></tr><tr><td style="font-weight:bold;vertical-align:top;">session_id_cmps183_project</td><td style="vertical-align:top;">:</td><td><div>127.0.0.1-242130cf-cf2e-4706-8e79-0e9678e282a3<table><tr><td style="font-weight:bold;vertical-align:top;">comment</td><td style="vertical-align:top;">:</td><td><div></div></td></tr><tr><td style="font-weight:bold;vertical-align:top;">domain</td><td style="vertical-align:top;">:</td><td><div></div></td></tr><tr><td style="font-weight:bold;vertical-align:top;">expires</td><td style="vertical-align:top;">:</td><td><div></div></td></tr><tr><td style="font-weight:bold;vertical-align:top;">httponly</td><td style="vertical-align:top;">:</td><td><div></div></td></tr><tr><td style="font-weight:bold;vertical-align:top;">max-age</td><td style="vertical-align:top;">:</td><td><div></div></td></tr><tr><td style="font-weight:bold;vertical-align:top;">path</td><td style="vertical-align:top;">:</td><td><div></div></td></tr><tr><td style="font-weight:bold;vertical-align:top;">secure</td><td style="vertical-align:top;">:</td><td><div></div></td></tr><tr><td style="font-weight:bold;vertical-align:top;">version</td><td style="vertical-align:top;">:</td><td><div></div></td></tr></table></div></td></tr><tr><td style="font-weight:bold;vertical-align:top;">session_id_welcome</td><td style="vertical-align:top;">:</td><td><div>127.0.0.1-158ad6b7-4582-4d16-9b81-fadcea580339<table><tr><td style="font-weight:bold;vertical-align:top;">comment</td><td style="vertical-align:top;">:</td><td><div></div></td></tr><tr><td style="font-weight:bold;vertical-align:top;">domain</td><td style="vertical-align:top;">:</td><td><div></div></td></tr><tr><td style="font-weight:bold;vertical-align:top;">expires</td><td style="vertical-align:top;">:</td><td><div></div></td></tr><tr><td style="font-weight:bold;vertical-align:top;">httponly</td><td style="vertical-align:top;">:</td><td><div></div></td></tr><tr><td style="font-weight:bold;vertical-align:top;">max-age</td><td style="vertical-align:top;">:</td><td><div></div></td></tr><tr><td style="font-weight:bold;vertical-align:top;">path</td><td style="vertical-align:top;">:</td><td><div></div></td></tr><tr><td style="font-weight:bold;vertical-align:top;">secure</td><td style="vertical-align:top;">:</td><td><div></div></td></tr><tr><td style="font-weight:bold;vertical-align:top;">version</td><td style="vertical-align:top;">:</td><td><div></div></td></tr></table></div></td></tr></table></div></td></tr><tr><td style="font-weight:bold;vertical-align:top;">env</td><td style="vertical-align:top;">:</td><td><div><table><tr><td style="font-weight:bold;vertical-align:top;">CONTENT_LENGTH</td><td style="vertical-align:top;">:</td><td><div>0</div></td></tr><tr><td style="font-weight:bold;vertical-align:top;">HTTP_ACCEPT</td><td style="vertical-align:top;">:</td><td><div>*/*</div></td></tr><tr><td style="font-weight:bold;vertical-align:top;">HTTP_ACCEPT_ENCODING</td><td style="vertical-align:top;">:</td><td><div>gzip, deflate</div></td></tr><tr><td style="font-weight:bold;vertical-align:top;">HTTP_ACCEPT_LANGUAGE</td><td style="vertical-align:top;">:</td><td><div>en-US,en;q=0.8</div></td></tr><tr><td style="font-weight:bold;vertical-align:top;">HTTP_CONNECTION</td><td style="vertical-align:top;">:</td><td><div>keep-alive</div></td></tr><tr><td style="font-weight:bold;vertical-align:top;">HTTP_CONTENT_LENGTH</td><td style="vertical-align:top;">:</td><td><div>0</div></td></tr><tr><td style="font-weight:bold;vertical-align:top;">HTTP_COOKIE</td><td style="vertical-align:top;">:</td><td><div>session_id_welcome=127.0.0.1-158ad6b7-4582-4d16-9b81-fadcea580339; session_id_admin=127.0.0.1-9acf578c-4f85-4176-b753-d205f1bd8f99; session_id_cmps183_project=127.0.0.1-242130cf-cf2e-4706-8e79-0e9678e282a3</div></td></tr><tr><td style="font-weight:bold;vertical-align:top;">HTTP_HOST</td><td style="vertical-align:top;">:</td><td><div>127.0.0.1:8800</div></td></tr><tr><td style="font-weight:bold;vertical-align:top;">HTTP_ORIGIN</td><td style="vertical-align:top;">:</td><td><div>http://127.0.0.1:8800</div></td></tr><tr><td style="font-weight:bold;vertical-align:top;">HTTP_REFERER</td><td style="vertical-align:top;">:</td><td><div>http://127.0.0.1:8800/cmps183_project/default/show_posts/art</div></td></tr><tr><td style="font-weight:bold;vertical-align:top;">HTTP_USER_AGENT</td><td style="vertical-align:top;">:</td><td><div>Mozilla/5.0 (Windows NT 10.0; WOW64) AppleWebKit/537.36 (KHTML, like Gecko) Chrome/47.0.2526.73 Safari/537.36</div></td></tr><tr><td style="font-weight:bold;vertical-align:top;">HTTP_X_REQUESTED_WITH</td><td style="vertical-align:top;">:</td><td><div>XMLHttpRequest</div></td></tr><tr><td style="font-weight:bold;vertical-align:top;">PATH_INFO</td><td style="vertical-align:top;">:</td><td><div>/cmps183_project/default/load_posts_recent/art</div></td></tr><tr><td style="font-weight:bold;vertical-align:top;">QUERY_STRING</td><td style="vertical-align:top;">:</td><td><div>_signature=b10aa7d311c3a053ffd8f6d32008b7bfaa4220a4</div></td></tr><tr><td style="font-weight:bold;vertical-align:top;">REMOTE_ADDR</td><td style="vertical-align:top;">:</td><td><div>127.0.0.1</div></td></tr><tr><td style="font-weight:bold;vertical-align:top;">REMOTE_PORT</td><td style="vertical-align:top;">:</td><td><div>54592</div></td></tr><tr><td style="font-weight:bold;vertical-align:top;">REQUEST_METHOD</td><td style="vertical-align:top;">:</td><td><div>POST</div></td></tr><tr><td style="font-weight:bold;vertical-align:top;">SCRIPT_NAME</td><td style="vertical-align:top;">:</td><td><div></div></td></tr><tr><td style="font-weight:bold;vertical-align:top;">SERVER_NAME</td><td style="vertical-align:top;">:</td><td><div>TaohsLaptop</div></td></tr><tr><td style="font-weight:bold;vertical-align:top;">SERVER_PORT</td><td style="vertical-align:top;">:</td><td><div>8800</div></td></tr><tr><td style="font-weight:bold;vertical-align:top;">SERVER_PROTOCOL</td><td style="vertical-align:top;">:</td><td><div>HTTP/1.1</div></td></tr><tr><td style="font-weight:bold;vertical-align:top;">SERVER_SOFTWARE</td><td style="vertical-align:top;">:</td><td><div>Rocket 1.2.6</div></td></tr><tr><td style="font-weight:bold;vertical-align:top;">app_folders</td><td style="vertical-align:top;">:</td><td><div>set([&#x27;C:\\\\Users\\\\Taoh\\\\Desktop\\\\git\\\\Project-cmps183\\\\web2py\\\\applications\\\\cmps183_project\\\\&#x27;, &#x27;C:\\\\Users\\\\Taoh\\\\Desktop\\\\git\\\\Project-cmps183\\\\web2py\\\\applications\\\\welcome\\\\&#x27;, &#x27;C:\\\\Users\\\\Taoh\\\\Desktop\\\\git\\\\Project-cmps183\\\\web2py\\\\applications\\\\admin\\\\&#x27;])</div></td></tr><tr><td style="font-weight:bold;vertical-align:top;">applications_parent</td><td style="vertical-align:top;">:</td><td><div>C:\\Users\\Taoh\\Desktop\\git\\Project-cmps183\\web2py</div></td></tr><tr><td style="font-weight:bold;vertical-align:top;">cmd_args</td><td style="vertical-align:top;">:</td><td><div><table></table></div></td></tr><tr><td style="font-weight:bold;vertical-align:top;">cmd_options</td><td style="vertical-align:top;">:</td><td><div>&lt;Values at 0x3a10348: {&#x27;verbose&#x27;: False, &#x27;ip&#x27;: &#x27;127.0.0.1&#x27;, &#x27;debuglevel&#x27;: 30, &#x27;with_scheduler&#x27;: False, &#x27;ips&#x27;: [], &#x27;shutdown_timeout&#x27;: 5, &#x27;taskbar&#x27;: False, &#x27;with_coverage&#x27;: False, &#x27;scheduler_groups&#x27;: None, &#x27;port&#x27;: 8800, &#x27;maxthreads&#x27;: None, &#x27;softcron&#x27;: False, &#x27;server_name&#x27;: &#x27;TaohsLaptop&#x27;, &#x27;bpython&#x27;: False, &#x27;nogui&#x27;: False, &#x27;pid_filename&#x27;: &#x27;httpserver.pid&#x27;, &#x27;print_errors&#x27;: True, &#x27;extcron&#x27;: False, &#x27;runcron&#x27;: False, &#x27;run_system_tests&#x27;: False, &#x27;test&#x27;: None, &#x27;folder&#x27;: &#x27;C:\\\\Users\\\\Taoh\\\\Desktop\\\\git\\\\Project-cmps183\\\\web2py&#x27;, &#x27;config&#x27;: &#x27;&#x27;, &#x27;minthreads&#x27;: None, &#x27;shell&#x27;: None, &#x27;run&#x27;: &#x27;&#x27;, &#x27;log_filename&#x27;: &#x27;httpserver.log&#x27;, &#x27;profiler_dir&#x27;: None, &#x27;args&#x27;: [&#x27;&#x27;], &#x27;socket_timeout&#x27;: 5, &#x27;ssl_ca_certificate&#x27;: None, &#x27;scheduler&#x27;: None, &#x27;interfaces&#x27;: None, &#x27;ssl_private_key&#x27;: &#x27;&#x27;, &#x27;gae&#x27;: None, &#x27;password&#x27;: &#x27;pass&#x27;, &#x27;request_queue_size&#x27;: 5, &#x27;ssl_certificate&#x27;: &#x27;&#x27;, &#x27;cronjob&#x27;: False, &#x27;numthreads&#x27;: None, &#x27;quiet&#x27;: False, &#x27;import_models&#x27;: False, &#x27;timeout&#x27;: 10, &#x27;plain&#x27;: False, &#x27;nobanner&#x27;: False}&gt;</div></td></tr><tr><td style="font-weight:bold;vertical-align:top;">content_length</td><td style="vertical-align:top;">:</td><td><div>0</div></td></tr><tr><td style="font-weight:bold;vertical-align:top;">db_sessions</td><td style="vertical-align:top;">:</td><td><div>set([])</div></td></tr><tr><td style="font-weight:bold;vertical-align:top;">debugging</td><td style="vertical-align:top;">:</td><td><div>False</div></td></tr><tr><td style="font-weight:bold;vertical-align:top;">gluon_parent</td><td style="vertical-align:top;">:</td><td><div>C:\\Users\\Taoh\\Desktop\\git\\Project-cmps183\\web2py</div></td></tr><tr><td style="font-weight:bold;vertical-align:top;">http_accept</td><td style="vertical-align:top;">:</td><td><div>*/*</div></td></tr><tr><td style="font-weight:bold;vertical-align:top;">http_accept_encoding</td><td style="vertical-align:top;">:</td><td><div>gzip, deflate</div></td></tr><tr><td style="font-weight:bold;vertical-align:top;">http_accept_language</td><td style="vertical-align:top;">:</td><td><div>en-US,en;q=0.8</div></td></tr><tr><td style="font-weight:bold;vertical-align:top;">http_connection</td><td style="vertical-align:top;">:</td><td><div>keep-alive</div></td></tr><tr><td style="font-weight:bold;vertical-align:top;">http_content_length</td><td style="vertical-align:top;">:</td><td><div>0</div></td></tr><tr><td style="font-weight:bold;vertical-align:top;">http_cookie</td><td style="vertical-align:top;">:</td><td><div>session_id_welcome=127.0.0.1-158ad6b7-4582-4d16-9b81-fadcea580339; session_id_admin=127.0.0.1-9acf578c-4f85-4176-b753-d205f1bd8f99; session_id_cmps183_project=127.0.0.1-242130cf-cf2e-4706-8e79-0e9678e282a3</div></td></tr><tr><td style="font-weight:bold;vertical-align:top;">http_host</td><td style="vertical-align:top;">:</td><td><div>127.0.0.1:8800</div></td></tr><tr><td style="font-weight:bold;vertical-align:top;">http_origin</td><td style="vertical-align:top;">:</td><td><div>http://127.0.0.1:8800</div></td></tr><tr><td style="font-weight:bold;vertical-align:top;">http_referer</td><td style="vertical-align:top;">:</td><td><div>http://127.0.0.1:8800/cmps183_project/default/show_posts/art</div></td></tr><tr><td style="font-weight:bold;vertical-align:top;">http_user_agent</td><td style="vertical-align:top;">:</td><td><div>Mozilla/5.0 (Windows NT 10.0; WOW64) AppleWebKit/537.36 (KHTML, like Gecko) Chrome/47.0.2526.73 Safari/537.36</div></td></tr><tr><td style="font-weight:bold;vertical-align:top;">http_x_requested_with</td><td style="vertical-align:top;">:</td><td><div>XMLHttpRequest</div></td></tr><tr><td style="font-weight:bold;vertical-align:top;">is_jython</td><td style="vertical-align:top;">:</td><td><div>False</div></td></tr><tr><td style="font-weight:bold;vertical-align:top;">is_pypy</td><td style="vertical-align:top;">:</td><td><div>False</div></td></tr><tr><td style="font-weight:bold;vertical-align:top;">is_source</td><td style="vertical-align:top;">:</td><td><div>True</div></td></tr><tr><td style="font-weight:bold;vertical-align:top;">local_hosts</td><td style="vertical-align:top;">:</td><td><div><table><tr><td><div>2002:a9e9:fd84::a9e9:fd84</div></td></tr><tr><td><div>TaohsLaptop</div></td></tr><tr><td><div>::ffff:127.0.0.1</div></td></tr><tr><td><div>::1</div></td></tr><tr><td><div>fe80::200:5efe:169.233.253.132%16</div></td></tr><tr><td><div>fe80::388e:12ed:5616:27b%15</div></td></tr><tr><td><div>TaohsLaptop.ucsc.edu</div></td></tr><tr><td><div>fe80::fc17:71e:d965:e12f%9</div></td></tr><tr><td><div>127.0.0.1</div></td></tr><tr><td><div>169.233.253.132</div></td></tr></table></div></td></tr><tr><td style="font-weight:bold;vertical-align:top;">path_info</td><td style="vertical-align:top;">:</td><td><div>/cmps183_project/default/load_posts_recent/art</div></td></tr><tr><td style="font-weight:bold;vertical-align:top;">query_string</td><td style="vertical-align:top;">:</td><td><div>_signature=b10aa7d311c3a053ffd8f6d32008b7bfaa4220a4</div></td></tr><tr><td style="font-weight:bold;vertical-align:top;">remote_addr</td><td style="vertical-align:top;">:</td><td><div>127.0.0.1</div></td></tr><tr><td style="font-weight:bold;vertical-align:top;">remote_port</td><td style="vertical-align:top;">:</td><td><div>54592</div></td></tr><tr><td style="font-weight:bold;vertical-align:top;">request_method</td><td style="vertical-align:top;">:</td><td><div>POST</div></td></tr><tr><td style="font-weight:bold;vertical-align:top;">request_uri</td><td style="vertical-align:top;">:</td><td><div>/cmps183_project/default/load_posts_recent/art?_signature=b10aa7d311c3a053ffd8f6d32008b7bfaa4220a4</div></td></tr><tr><td style="font-weight:bold;vertical-align:top;">script_name</td><td style="vertical-align:top;">:</td><td><div></div></td></tr><tr><td style="font-weight:bold;vertical-align:top;">server_name</td><td style="vertical-align:top;">:</td><td><div>TaohsLaptop</div></td></tr><tr><td style="font-weight:bold;vertical-align:top;">server_port</td><td style="vertical-align:top;">:</td><td><div>8800</div></td></tr><tr><td style="font-weight:bold;vertical-align:top;">server_protocol</td><td style="vertical-align:top;">:</td><td><div>HTTP/1.1</div></td></tr><tr><td style="font-weight:bold;vertical-align:top;">server_software</td><td style="vertical-align:top;">:</td><td><div>Rocket 1.2.6</div></td></tr><tr><td style="font-weight:bold;vertical-align:top;">web2py_path</td><td style="vertical-align:top;">:</td><td><div>C:\\Users\\Taoh\\Desktop\\git\\Project-cmps183\\web2py</div></td></tr><tr><td style="font-weight:bold;vertical-align:top;">web2py_version</td><td style="vertical-align:top;">:</td><td><div>2.12.3-stable+timestamp.2015.08.19.00.18.03</div></td></tr><tr><td style="font-weight:bold;vertical-align:top;">wsgi.errors</td><td style="vertical-align:top;">:</td><td><div>&lt;open file &#x27;&lt;stderr&gt;&#x27;, mode &#x27;w&#x27; at 0x000000000228B150&gt;</div></td></tr><tr><td style="font-weight:bold;vertical-align:top;">wsgi.file_wrapper</td><td style="vertical-align:top;">:</td><td><div>&lt;class wsgiref.util.FileWrapper at 0x0000000003993CA8&gt;</div></td></tr><tr><td style="font-weight:bold;vertical-align:top;">wsgi.input</td><td style="vertical-align:top;">:</td><td><div>&lt;socket._fileobject object at 0x00000000067584F8&gt;</div></td></tr><tr><td style="font-weight:bold;vertical-align:top;">wsgi.multiprocess</td><td style="vertical-align:top;">:</td><td><div>False</div></td></tr><tr><td style="font-weight:bold;vertical-align:top;">wsgi.multithread</td><td style="vertical-align:top;">:</td><td><div>True</div></td></tr><tr><td style="font-weight:bold;vertical-align:top;">wsgi.run_once</td><td style="vertical-align:top;">:</td><td><div>False</div></td></tr><tr><td style="font-weight:bold;vertical-align:top;">wsgi.url_scheme</td><td style="vertical-align:top;">:</td><td><div>http</div></td></tr><tr><td style="font-weight:bold;vertical-align:top;">wsgi.version</td><td style="vertical-align:top;">:</td><td><div><table><tr><td><div>1</div></td></tr><tr><td><div>0</div></td></tr></table></div></td></tr><tr><td style="font-weight:bold;vertical-align:top;">wsgi_errors</td><td style="vertical-align:top;">:</td><td><div>&lt;open file &#x27;&lt;stderr&gt;&#x27;, mode &#x27;w&#x27; at 0x000000000228B150&gt;</div></td></tr><tr><td style="font-weight:bold;vertical-align:top;">wsgi_file_wrapper</td><td style="vertical-align:top;">:</td><td><div>&lt;class wsgiref.util.FileWrapper at 0x0000000003993CA8&gt;</div></td></tr><tr><td style="font-weight:bold;vertical-align:top;">wsgi_input</td><td style="vertical-align:top;">:</td><td><div>&lt;socket._fileobject object at 0x00000000067584F8&gt;</div></td></tr><tr><td style="font-weight:bold;vertical-align:top;">wsgi_multiprocess</td><td style="vertical-align:top;">:</td><td><div>False</div></td></tr><tr><td style="font-weight:bold;vertical-align:top;">wsgi_multithread</td><td style="vertical-align:top;">:</td><td><div>True</div></td></tr><tr><td style="font-weight:bold;vertical-align:top;">wsgi_run_once</td><td style="vertical-align:top;">:</td><td><div>False</div></td></tr><tr><td style="font-weight:bold;vertical-align:top;">wsgi_url_scheme</td><td style="vertical-align:top;">:</td><td><div>http</div></td></tr><tr><td style="font-weight:bold;vertical-align:top;">wsgi_version</td><td style="vertical-align:top;">:</td><td><div><table><tr><td><div>1</div></td></tr><tr><td><div>0</div></td></tr></table></div></td></tr></table></div></td></tr><tr><td style="font-weight:bold;vertical-align:top;">extension</td><td style="vertical-align:top;">:</td><td><div>html</div></td></tr><tr><td style="font-weight:bold;vertical-align:top;">folder</td><td style="vertical-align:top;">:</td><td><div>C:\\Users\\Taoh\\Desktop\\git\\Project-cmps183\\web2py\\applications\\cmps183_project\\</div></td></tr><tr><td style="font-weight:bold;vertical-align:top;">function</td><td style="vertical-align:top;">:</td><td><div>load_posts_recent</div></td></tr><tr><td style="font-weight:bold;vertical-align:top;">global_settings</td><td style="vertical-align:top;">:</td><td><div><table><tr><td style="font-weight:bold;vertical-align:top;">app_folders</td><td style="vertical-align:top;">:</td><td><div>set([&#x27;C:\\\\Users\\\\Taoh\\\\Desktop\\\\git\\\\Project-cmps183\\\\web2py\\\\applications\\\\cmps183_project\\\\&#x27;, &#x27;C:\\\\Users\\\\Taoh\\\\Desktop\\\\git\\\\Project-cmps183\\\\web2py\\\\applications\\\\welcome\\\\&#x27;, &#x27;C:\\\\Users\\\\Taoh\\\\Desktop\\\\git\\\\Project-cmps183\\\\web2py\\\\applications\\\\admin\\\\&#x27;])</div></td></tr><tr><td style="font-weight:bold;vertical-align:top;">applications_parent</td><td style="vertical-align:top;">:</td><td><div>C:\\Users\\Taoh\\Desktop\\git\\Project-cmps183\\web2py</div></td></tr><tr><td style="font-weight:bold;vertical-align:top;">cmd_args</td><td style="vertical-align:top;">:</td><td><div><table></table></div></td></tr><tr><td style="font-weight:bold;vertical-align:top;">cmd_options</td><td style="vertical-align:top;">:</td><td><div>&lt;Values at 0x3a10348: {&#x27;verbose&#x27;: False, &#x27;ip&#x27;: &#x27;127.0.0.1&#x27;, &#x27;debuglevel&#x27;: 30, &#x27;with_scheduler&#x27;: False, &#x27;ips&#x27;: [], &#x27;shutdown_timeout&#x27;: 5, &#x27;taskbar&#x27;: False, &#x27;with_coverage&#x27;: False, &#x27;scheduler_groups&#x27;: None, &#x27;port&#x27;: 8800, &#x27;maxthreads&#x27;: None, &#x27;softcron&#x27;: False, &#x27;server_name&#x27;: &#x27;TaohsLaptop&#x27;, &#x27;bpython&#x27;: False, &#x27;nogui&#x27;: False, &#x27;pid_filename&#x27;: &#x27;httpserver.pid&#x27;, &#x27;print_errors&#x27;: True, &#x27;extcron&#x27;: False, &#x27;runcron&#x27;: False, &#x27;run_system_tests&#x27;: False, &#x27;test&#x27;: None, &#x27;folder&#x27;: &#x27;C:\\\\Users\\\\Taoh\\\\Desktop\\\\git\\\\Project-cmps183\\\\web2py&#x27;, &#x27;config&#x27;: &#x27;&#x27;, &#x27;minthreads&#x27;: None, &#x27;shell&#x27;: None, &#x27;run&#x27;: &#x27;&#x27;, &#x27;log_filename&#x27;: &#x27;httpserver.log&#x27;, &#x27;profiler_dir&#x27;: None, &#x27;args&#x27;: [&#x27;&#x27;], &#x27;socket_timeout&#x27;: 5, &#x27;ssl_ca_certificate&#x27;: None, &#x27;scheduler&#x27;: None, &#x27;interfaces&#x27;: None, &#x27;ssl_private_key&#x27;: &#x27;&#x27;, &#x27;gae&#x27;: None, &#x27;password&#x27;: &#x27;pass&#x27;, &#x27;request_queue_size&#x27;: 5, &#x27;ssl_certificate&#x27;: &#x27;&#x27;, &#x27;cronjob&#x27;: False, &#x27;numthreads&#x27;: None, &#x27;quiet&#x27;: False, &#x27;import_models&#x27;: False, &#x27;timeout&#x27;: 10, &#x27;plain&#x27;: False, &#x27;nobanner&#x27;: False}&gt;</div></td></tr><tr><td style="font-weight:bold;vertical-align:top;">db_sessions</td><td style="vertical-align:top;">:</td><td><div>set([])</div></td></tr><tr><td style="font-weight:bold;vertical-align:top;">debugging</td><td style="vertical-align:top;">:</td><td><div>False</div></td></tr><tr><td style="font-weight:bold;vertical-align:top;">gluon_parent</td><td style="vertical-align:top;">:</td><td><div>C:\\Users\\Taoh\\Desktop\\git\\Project-cmps183\\web2py</div></td></tr><tr><td style="font-weight:bold;vertical-align:top;">is_jython</td><td style="vertical-align:top;">:</td><td><div>False</div></td></tr><tr><td style="font-weight:bold;vertical-align:top;">is_pypy</td><td style="vertical-align:top;">:</td><td><div>False</div></td></tr><tr><td style="font-weight:bold;vertical-align:top;">is_source</td><td style="vertical-align:top;">:</td><td><div>True</div></td></tr><tr><td style="font-weight:bold;vertical-align:top;">local_hosts</td><td style="vertical-align:top;">:</td><td><div><table><tr><td><div>2002:a9e9:fd84::a9e9:fd84</div></td></tr><tr><td><div>TaohsLaptop</div></td></tr><tr><td><div>::ffff:127.0.0.1</div></td></tr><tr><td><div>::1</div></td></tr><tr><td><div>fe80::200:5efe:169.233.253.132%16</div></td></tr><tr><td><div>fe80::388e:12ed:5616:27b%15</div></td></tr><tr><td><div>TaohsLaptop.ucsc.edu</div></td></tr><tr><td><div>fe80::fc17:71e:d965:e12f%9</div></td></tr><tr><td><div>127.0.0.1</div></td></tr><tr><td><div>169.233.253.132</div></td></tr></table></div></td></tr><tr><td style="font-weight:bold;vertical-align:top;">web2py_version</td><td style="vertical-align:top;">:</td><td><div>2.12.3-stable+timestamp.2015.08.19.00.18.03</div></td></tr></table></div></td></tr><tr><td style="font-weight:bold;vertical-align:top;">is_https</td><td style="vertical-align:top;">:</td><td><div>False</div></td></tr><tr><td style="font-weight:bold;vertical-align:top;">is_local</td><td style="vertical-align:top;">:</td><td><div>True</div></td></tr><tr><td style="font-weight:bold;vertical-align:top;">is_restful</td><td style="vertical-align:top;">:</td><td><div>False</div></td></tr><tr><td style="font-weight:bold;vertical-align:top;">is_sheduler</td><td style="vertical-align:top;">:</td><td><div>None</div></td></tr><tr><td style="font-weight:bold;vertical-align:top;">is_shell</td><td style="vertical-align:top;">:</td><td><div>None</div></td></tr><tr><td style="font-weight:bold;vertical-align:top;">now</td><td style="vertical-align:top;">:</td><td><div>datetime.datetime(2015, 12, 9, 21, 46, 1, 765000)</div></td></tr><tr><td style="font-weight:bold;vertical-align:top;">raw_args</td><td style="vertical-align:top;">:</td><td><div>art</div></td></tr><tr><td style="font-weight:bold;vertical-align:top;">raw_extension</td><td style="vertical-align:top;">:</td><td><div>None</div></td></tr><tr><td style="font-weight:bold;vertical-align:top;">url</td><td style="vertical-align:top;">:</td><td><div>/cmps183_project/default/load_posts_recent/art</div></td></tr><tr><td style="font-weight:bold;vertical-align:top;">utcnow</td><td style="vertical-align:top;">:</td><td><div>datetime.datetime(2015, 12, 10, 5, 46, 1, 765000)</div></td></tr><tr><td style="font-weight:bold;vertical-align:top;">wsgi</td><td style="vertical-align:top;">:</td><td><div>&lt;gluon.main.LazyWSGI object at 0x0000000006C80438&gt;</div></td></tr></table></div>'
tRp58
sS'frames'
p59
(lp60
(dp61
S'file'
p62
S'C:\\Users\\Taoh\\Desktop\\git\\Project-cmps183\\web2py\\gluon\\restricted.py'
p63
sS'dump'
p64
(dp65
S'environment'
p66
S"{'A': <class 'gluon.html.A'>, 'ANY_OF': <class 'gluon.validators.ANY_OF'>, 'ASSIGNJS': <function ASSIGNJS>, 'AppConfig': <function AppConfig>, 'Auth': <class 'gluon.tools.Auth'>, 'B': <class 'gluon.html.B'>, 'BEAUTIFY': <class 'gluon.html.BEAUTIFY'>, 'BODY': <class 'gluon.html.BODY'>, 'BR': <class 'gluon.html.BR'>, 'BUTTON': <class 'gluon.html.BUTTON'>, ...}"
p67
sS'ccode'
p68
S'<code object <module> at 0000000008B52E30, file ...cmps183_project\\controllers/default.py", line 11>'
p69
ssS'lnum'
p70
I227
sS'lines'
p71
(dp72
I224
S'            ccode = code'
p73
sI225
S'        else:'
p74
sI226
S'            ccode = compile2(code, layer)'
p75
sI227
S'        exec ccode in environment'
p76
sI228
S'    except HTTP:'
p77
sI229
S'        raise'
p78
sI230
S'    except RestrictedError:'
p79
sI231
S'        # do not encapsulate (obfuscate) the original RestrictedError'
p80
sI222
S'    try:'
p81
sI223
S'        if isinstance(code, types.CodeType):'
p82
ssS'call'
p83
S"(code='# -*- coding: utf-8 -*-\\n# this file is released ...sponse._vars=response._caller(load_posts_recent)\\n', environment={'A': <class 'gluon.html.A'>, 'ANY_OF': <class 'gluon.validators.ANY_OF'>, 'ASSIGNJS': <function ASSIGNJS>, 'AppConfig': <function AppConfig>, 'Auth': <class 'gluon.tools.Auth'>, 'B': <class 'gluon.html.B'>, 'BEAUTIFY': <class 'gluon.html.BEAUTIFY'>, 'BODY': <class 'gluon.html.BODY'>, 'BR': <class 'gluon.html.BR'>, 'BUTTON': <class 'gluon.html.BUTTON'>, ...}, layer=r'C:\\Users\\Taoh\\Desktop\\git\\Project-cmps183\\web2py\\applications\\cmps183_project\\controllers/default.py')"
p84
sS'func'
p85
S'restricted'
p86
sa(dp87
g62
S'C:\\Users\\Taoh\\Desktop\\git\\Project-cmps183\\web2py\\applications\\cmps183_project\\controllers\\default.py'
p88
sg64
(dp89
S'service'
p90
S'<gluon.tools.Service object>'
p91
ssg70
I355
sg71
(dp92
I352
S''
sI353
S''
sI344
S'    """'
p93
sI345
S'    exposes services. for example:'
p94
sI346
S'    http://..../[app]/default/call/jsonrpc'
p95
sI347
S'    decorate with @services.jsonrpc the functions to expose'
p96
sI348
S'    supports xml, json, xmlrpc, jsonrpc, amfrpc, rss, csv'
p97
sI349
S'    """'
p98
sI350
S'    return service()'
p99
sI351
S''
ssg83
S'()'
p100
sg85
S'<module>'
p101
sa(dp102
g62
S'C:\\Users\\Taoh\\Desktop\\git\\Project-cmps183\\web2py\\gluon\\globals.py'
p103
sg64
(dp104
S'self'
p105
S'undefined'
p106
sS'f'
S'<function load_posts_recent>'
p107
ssg70
I412
sg71
(dp108
I416
S"        self.generic_patterns = ['*']"
p109
sI407
S"        self.flash = ''            # used by the default view layout"
p110
sI408
S'        self.meta = Storage()      # used by web2py_ajax.html'
p111
sI409
S'        self.menu = []             # used by the default view layout'
p112
sI410
S'        self.files = []            # used by web2py_ajax.html'
p113
sI411
S'        self._vars = None'
p114
sI412
S'        self._caller = lambda f: f()'
p115
sI413
S'        self._view_environment = None'
p116
sI414
S'        self._custom_commit = None'
p117
sI415
S'        self._custom_rollback = None'
p118
ssg83
S'(f=<function load_posts_recent>)'
p119
sg85
S'<lambda>'
p120
sa(dp121
g62
S'C:\\Users\\Taoh\\Desktop\\git\\Project-cmps183\\web2py\\applications\\cmps183_project\\controllers\\default.py'
p122
sg64
(dp123
S'builtinrange'
p124
S'<built-in function range>'
p125
sS'star_dict'
p126
S'{123L: [], 126L: [], 127L: [], 128L: [], 129L: [], 130L: [], 131L: []}'
p127
sS'post.avg_rate'
p128
S'0.0'
p129
sS'post'
p130
S"<Row {'body': 'thanks', 'category': 'art', 'user...ploads': <Set (uploads.post = 123)>, 'id': 123L}>"
p131
sS'post.id'
p132
S'123L'
p133
sS'builtinint'
p134
S"<type 'int'>"
p135
ssg70
I161
sg71
(dp136
I160
S''
sI161
S'    return response.json(dict(post_list=posts.as_list(), images_dict=images_dict, star_dict=star_dict, anti_star_dict=anti_star_dict, half_star_dict=half_star_dict))'
p137
sI162
S''
sI163
S'def show_posts():'
p138
sI164
S'    post_category = request.args(0)'
p139
sI165
S'    post_list = db(db.posts.category == post_category).select()'
p140
sI156
S''
sI157
S'        images_dict[post.id] = db(db.uploads.post == post.id).select().first'
p141
sI158
S'        star_dict[post.id] = range(0, int(post.avg_rate))'
p142
sI159
S''
ssg83
S'()'
p143
sg85
S'load_posts_recent'
p144
sa(dp145
g62
S'C:\\Users\\Taoh\\Desktop\\git\\Project-cmps183\\web2py\\gluon\\globals.py'
p146
sg64
(dp147
S'default'
p148
S'None'
p149
sS'global custom_json'
p150
S'<function custom_json>'
p151
sS'global json'
p152
S'<function json>'
p153
sS'data'
p154
S"{'anti_star_dict': {123L: [0, 1, 2, 3, 4], 126L: [0, 1, 2, 3, 4], 127L: [0, 1, 2, 3, 4], 128L: [0, 1, 2, 3, 4], 129L: [0, 1, 2, 3, 4], 130L: [0, 1, 2, 3, 4], 131L: [0, 1, 2, 3, 4]}, 'half_star_dict': {123L: False, 126L: False, 127L: False, 128L: False, 129L: False, 130L: False, 131L: False}, 'images_dict': {123L: <bound method Rows.first of <Rows (0)>>, 126L: <bound method Rows.first of <Rows (0)>>, 127L: <bound method Rows.first of <Rows (0)>>, 128L: <bound method Rows.first of <Rows (0)>>, 129L: <bound method Rows.first of <Rows (0)>>, 130L: <bound method Rows.first of <Rows (0)>>, 131L: <bound method Rows.first of <Rows (0)>>}, 'post_list': [{'avg_rate': 0.0, 'body': '', 'category': 'art', 'created_on': datetime.datetime(2015, 12, 9, 21, 41, 51), 'id': 131L, 'title': 'wow', 'user_id': 5L}, {'avg_rate': 0.0, 'body': 'test', 'category': 'art', 'created_on': datetime.datetime(2015, 12, 9, 21, 4, 17), 'id': 130L, 'title': 'wow this is sucks', 'user_id': 5L}, {'avg_rate': 0.0, 'body': '', 'category': 'art', 'created_on': datetime.datetime(2015, 12, 9, 19, 6, 19), 'id': 129L, 'title': 'testing 123', 'user_id': 8L}, {'avg_rate': 0.0, 'body': 'oaifjiofejafiojaofjeiwoa[jfwajef[oia[wjfepoj', 'category': 'art', 'created_on': datetime.datetime(2015, 12, 8, 22, 55, 13), 'id': 128L, 'title': 'goooaiejfoiajefoiajfoiaejfoiajoiefjoiajifej\\r\\nepa...jajfioejpaofijijefijaiojefiajf\\r\\noaijiafojaopjfoei', 'user_id': 7L}, {'avg_rate': 0.0, 'body': 'ioaei', 'category': 'art', 'created_on': datetime.datetime(2015, 12, 8, 22, 54, 33), 'id': 127L, 'title': 'test', 'user_id': 5L}, {'avg_rate': 0.0, 'body': 'wee', 'category': 'art', 'created_on': datetime.datetime(2015, 12, 8, 22, 53, 33), 'id': 126L, 'title': 'wow', 'user_id': 5L}, {'avg_rate': 0.0, 'body': 'thanks', 'category': 'art', 'created_on': datetime.datetime(2015, 12, 8, 19, 18, 18), 'id': 123L, 'title': 'this is very cool', 'user_id': 5L}], 'star_dict': {123L: [], 126L: [], 127L: [], 128L: [], 129L: [], 130L: [], 131L: []}}"
p155
ssg70
I656
sg71
(dp156
I651
S'        return self.stream(stream, chunk_size=chunk_size, request=request)'
p157
sI652
S''
sI653
S'    def json(self, data, default=None):'
p158
sI654
S"        if 'Content-Type' not in self.headers:"
p159
sI655
S"            self.headers['Content-Type'] = 'application/json'"
p160
sI656
S'        return json(data, default=default or custom_json)'
p161
sI657
S''
sI658
S'    def xmlrpc(self, request, methods):'
p162
sI659
S'        """'
p163
sI660
S'        assuming::'
p164
ssg83
S"(self=<Storage {'body': <cStringIO.StringO object at 0...3828>, 'view': 'default/load_posts_recent.html'}>, data={'anti_star_dict': {123L: [0, 1, 2, 3, 4], 126L: [0, 1, 2, 3, 4], 127L: [0, 1, 2, 3, 4], 128L: [0, 1, 2, 3, 4], 129L: [0, 1, 2, 3, 4], 130L: [0, 1, 2, 3, 4], 131L: [0, 1, 2, 3, 4]}, 'half_star_dict': {123L: False, 126L: False, 127L: False, 128L: False, 129L: False, 130L: False, 131L: False}, 'images_dict': {123L: <bound method Rows.first of <Rows (0)>>, 126L: <bound method Rows.first of <Rows (0)>>, 127L: <bound method Rows.first of <Rows (0)>>, 128L: <bound method Rows.first of <Rows (0)>>, 129L: <bound method Rows.first of <Rows (0)>>, 130L: <bound method Rows.first of <Rows (0)>>, 131L: <bound method Rows.first of <Rows (0)>>}, 'post_list': [{'avg_rate': 0.0, 'body': '', 'category': 'art', 'created_on': datetime.datetime(2015, 12, 9, 21, 41, 51), 'id': 131L, 'title': 'wow', 'user_id': 5L}, {'avg_rate': 0.0, 'body': 'test', 'category': 'art', 'created_on': datetime.datetime(2015, 12, 9, 21, 4, 17), 'id': 130L, 'title': 'wow this is sucks', 'user_id': 5L}, {'avg_rate': 0.0, 'body': '', 'category': 'art', 'created_on': datetime.datetime(2015, 12, 9, 19, 6, 19), 'id': 129L, 'title': 'testing 123', 'user_id': 8L}, {'avg_rate': 0.0, 'body': 'oaifjiofejafiojaofjeiwoa[jfwajef[oia[wjfepoj', 'category': 'art', 'created_on': datetime.datetime(2015, 12, 8, 22, 55, 13), 'id': 128L, 'title': 'goooaiejfoiajefoiajfoiaejfoiajoiefjoiajifej\\r\\nepa...jajfioejpaofijijefijaiojefiajf\\r\\noaijiafojaopjfoei', 'user_id': 7L}, {'avg_rate': 0.0, 'body': 'ioaei', 'category': 'art', 'created_on': datetime.datetime(2015, 12, 8, 22, 54, 33), 'id': 127L, 'title': 'test', 'user_id': 5L}, {'avg_rate': 0.0, 'body': 'wee', 'category': 'art', 'created_on': datetime.datetime(2015, 12, 8, 22, 53, 33), 'id': 126L, 'title': 'wow', 'user_id': 5L}, {'avg_rate': 0.0, 'body': 'thanks', 'category': 'art', 'created_on': datetime.datetime(2015, 12, 8, 19, 18, 18), 'id': 123L, 'title': 'this is very cool', 'user_id': 5L}], 'star_dict': {123L: [], 126L: [], 127L: [], 128L: [], 129L: [], 130L: [], 131L: []}}, default=None)"
p165
sg85
S'json'
p166
sa(dp167
g62
S'C:\\Users\\Taoh\\Desktop\\git\\Project-cmps183\\web2py\\gluon\\serializers.py'
p168
sg64
(dp169
S'default'
p170
S'<function custom_json>'
p171
sS'json_parser.dumps'
p172
S'<function dumps>'
p173
sS'global json_parser'
p174
S"<module 'json' from 'C:\\Python27\\lib\\json\\__init__.pyc'>"
p175
sS'value'
p176
S"{'anti_star_dict': {123L: [0, 1, 2, 3, 4], 126L: [0, 1, 2, 3, 4], 127L: [0, 1, 2, 3, 4], 128L: [0, 1, 2, 3, 4], 129L: [0, 1, 2, 3, 4], 130L: [0, 1, 2, 3, 4], 131L: [0, 1, 2, 3, 4]}, 'half_star_dict': {123L: False, 126L: False, 127L: False, 128L: False, 129L: False, 130L: False, 131L: False}, 'images_dict': {123L: <bound method Rows.first of <Rows (0)>>, 126L: <bound method Rows.first of <Rows (0)>>, 127L: <bound method Rows.first of <Rows (0)>>, 128L: <bound method Rows.first of <Rows (0)>>, 129L: <bound method Rows.first of <Rows (0)>>, 130L: <bound method Rows.first of <Rows (0)>>, 131L: <bound method Rows.first of <Rows (0)>>}, 'post_list': [{'avg_rate': 0.0, 'body': '', 'category': 'art', 'created_on': datetime.datetime(2015, 12, 9, 21, 41, 51), 'id': 131L, 'title': 'wow', 'user_id': 5L}, {'avg_rate': 0.0, 'body': 'test', 'category': 'art', 'created_on': datetime.datetime(2015, 12, 9, 21, 4, 17), 'id': 130L, 'title': 'wow this is sucks', 'user_id': 5L}, {'avg_rate': 0.0, 'body': '', 'category': 'art', 'created_on': datetime.datetime(2015, 12, 9, 19, 6, 19), 'id': 129L, 'title': 'testing 123', 'user_id': 8L}, {'avg_rate': 0.0, 'body': 'oaifjiofejafiojaofjeiwoa[jfwajef[oia[wjfepoj', 'category': 'art', 'created_on': datetime.datetime(2015, 12, 8, 22, 55, 13), 'id': 128L, 'title': 'goooaiejfoiajefoiajfoiaejfoiajoiefjoiajifej\\r\\nepa...jajfioejpaofijijefijaiojefiajf\\r\\noaijiafojaopjfoei', 'user_id': 7L}, {'avg_rate': 0.0, 'body': 'ioaei', 'category': 'art', 'created_on': datetime.datetime(2015, 12, 8, 22, 54, 33), 'id': 127L, 'title': 'test', 'user_id': 5L}, {'avg_rate': 0.0, 'body': 'wee', 'category': 'art', 'created_on': datetime.datetime(2015, 12, 8, 22, 53, 33), 'id': 126L, 'title': 'wow', 'user_id': 5L}, {'avg_rate': 0.0, 'body': 'thanks', 'category': 'art', 'created_on': datetime.datetime(2015, 12, 8, 19, 18, 18), 'id': 123L, 'title': 'this is very cool', 'user_id': 5L}], 'star_dict': {123L: [], 126L: [], 127L: [], 128L: [], 129L: [], 130L: [], 131L: []}}"
p177
ssg70
I137
sg71
(dp178
I132
S''
sI133
S'def json(value, default=custom_json):'
p179
sI134
S'    if decimal_false_option:'
p180
sI135
S'        value = json_parser.dumps(value, default=default, use_decimal=False)'
p181
sI136
S'    else:'
p182
sI137
S'        value = json_parser.dumps(value, default=default)'
p183
sI138
S''
sI139
S'    # replace JavaScript incompatible spacing'
p184
sI140
S'    # http://timelessrepo.com/json-isnt-a-javascript-subset'
p185
sI141
S"    return value.replace(ur'\\u2028', '\\\\u2028').replace(ur'\\2029', '\\\\u2029')"
p186
ssg83
S"(value={'anti_star_dict': {123L: [0, 1, 2, 3, 4], 126L: [0, 1, 2, 3, 4], 127L: [0, 1, 2, 3, 4], 128L: [0, 1, 2, 3, 4], 129L: [0, 1, 2, 3, 4], 130L: [0, 1, 2, 3, 4], 131L: [0, 1, 2, 3, 4]}, 'half_star_dict': {123L: False, 126L: False, 127L: False, 128L: False, 129L: False, 130L: False, 131L: False}, 'images_dict': {123L: <bound method Rows.first of <Rows (0)>>, 126L: <bound method Rows.first of <Rows (0)>>, 127L: <bound method Rows.first of <Rows (0)>>, 128L: <bound method Rows.first of <Rows (0)>>, 129L: <bound method Rows.first of <Rows (0)>>, 130L: <bound method Rows.first of <Rows (0)>>, 131L: <bound method Rows.first of <Rows (0)>>}, 'post_list': [{'avg_rate': 0.0, 'body': '', 'category': 'art', 'created_on': datetime.datetime(2015, 12, 9, 21, 41, 51), 'id': 131L, 'title': 'wow', 'user_id': 5L}, {'avg_rate': 0.0, 'body': 'test', 'category': 'art', 'created_on': datetime.datetime(2015, 12, 9, 21, 4, 17), 'id': 130L, 'title': 'wow this is sucks', 'user_id': 5L}, {'avg_rate': 0.0, 'body': '', 'category': 'art', 'created_on': datetime.datetime(2015, 12, 9, 19, 6, 19), 'id': 129L, 'title': 'testing 123', 'user_id': 8L}, {'avg_rate': 0.0, 'body': 'oaifjiofejafiojaofjeiwoa[jfwajef[oia[wjfepoj', 'category': 'art', 'created_on': datetime.datetime(2015, 12, 8, 22, 55, 13), 'id': 128L, 'title': 'goooaiejfoiajefoiajfoiaejfoiajoiefjoiajifej\\r\\nepa...jajfioejpaofijijefijaiojefiajf\\r\\noaijiafojaopjfoei', 'user_id': 7L}, {'avg_rate': 0.0, 'body': 'ioaei', 'category': 'art', 'created_on': datetime.datetime(2015, 12, 8, 22, 54, 33), 'id': 127L, 'title': 'test', 'user_id': 5L}, {'avg_rate': 0.0, 'body': 'wee', 'category': 'art', 'created_on': datetime.datetime(2015, 12, 8, 22, 53, 33), 'id': 126L, 'title': 'wow', 'user_id': 5L}, {'avg_rate': 0.0, 'body': 'thanks', 'category': 'art', 'created_on': datetime.datetime(2015, 12, 8, 19, 18, 18), 'id': 123L, 'title': 'this is very cool', 'user_id': 5L}], 'star_dict': {123L: [], 126L: [], 127L: [], 128L: [], 129L: [], 130L: [], 131L: []}}, default=<function custom_json>)"
p187
sg85
g166
sa(dp188
g62
S'C:\\Python27\\lib\\json\\__init__.py'
p189
sg64
(dp190
S'obj'
p191
S"{'anti_star_dict': {123L: [0, 1, 2, 3, 4], 126L: [0, 1, 2, 3, 4], 127L: [0, 1, 2, 3, 4], 128L: [0, 1, 2, 3, 4], 129L: [0, 1, 2, 3, 4], 130L: [0, 1, 2, 3, 4], 131L: [0, 1, 2, 3, 4]}, 'half_star_dict': {123L: False, 126L: False, 127L: False, 128L: False, 129L: False, 130L: False, 131L: False}, 'images_dict': {123L: <bound method Rows.first of <Rows (0)>>, 126L: <bound method Rows.first of <Rows (0)>>, 127L: <bound method Rows.first of <Rows (0)>>, 128L: <bound method Rows.first of <Rows (0)>>, 129L: <bound method Rows.first of <Rows (0)>>, 130L: <bound method Rows.first of <Rows (0)>>, 131L: <bound method Rows.first of <Rows (0)>>}, 'post_list': [{'avg_rate': 0.0, 'body': '', 'category': 'art', 'created_on': datetime.datetime(2015, 12, 9, 21, 41, 51), 'id': 131L, 'title': 'wow', 'user_id': 5L}, {'avg_rate': 0.0, 'body': 'test', 'category': 'art', 'created_on': datetime.datetime(2015, 12, 9, 21, 4, 17), 'id': 130L, 'title': 'wow this is sucks', 'user_id': 5L}, {'avg_rate': 0.0, 'body': '', 'category': 'art', 'created_on': datetime.datetime(2015, 12, 9, 19, 6, 19), 'id': 129L, 'title': 'testing 123', 'user_id': 8L}, {'avg_rate': 0.0, 'body': 'oaifjiofejafiojaofjeiwoa[jfwajef[oia[wjfepoj', 'category': 'art', 'created_on': datetime.datetime(2015, 12, 8, 22, 55, 13), 'id': 128L, 'title': 'goooaiejfoiajefoiajfoiaejfoiajoiefjoiajifej\\r\\nepa...jajfioejpaofijijefijaiojefiajf\\r\\noaijiafojaopjfoei', 'user_id': 7L}, {'avg_rate': 0.0, 'body': 'ioaei', 'category': 'art', 'created_on': datetime.datetime(2015, 12, 8, 22, 54, 33), 'id': 127L, 'title': 'test', 'user_id': 5L}, {'avg_rate': 0.0, 'body': 'wee', 'category': 'art', 'created_on': datetime.datetime(2015, 12, 8, 22, 53, 33), 'id': 126L, 'title': 'wow', 'user_id': 5L}, {'avg_rate': 0.0, 'body': 'thanks', 'category': 'art', 'created_on': datetime.datetime(2015, 12, 8, 19, 18, 18), 'id': 123L, 'title': 'this is very cool', 'user_id': 5L}], 'star_dict': {123L: [], 126L: [], 127L: [], 128L: [], 129L: [], 130L: [], 131L: []}}"
p192
sS'sort_keys'
p193
S'False'
p194
sS'kw'
p195
g43
sS').encode'
p196
g106
ssg70
I250
sg71
(dp197
I245
S'        cls = JSONEncoder'
p198
sI246
S'    return cls('
p199
sI247
S'        skipkeys=skipkeys, ensure_ascii=ensure_ascii,'
p200
sI248
S'        check_circular=check_circular, allow_nan=allow_nan, indent=indent,'
p201
sI249
S'        separators=separators, encoding=encoding, default=default,'
p202
sI250
S'        sort_keys=sort_keys, **kw).encode(obj)'
p203
sI251
S''
sI252
S''
sI253
S'_default_decoder = JSONDecoder(encoding=None, object_hook=None,'
p204
sI254
S'                               object_pairs_hook=None)'
p205
ssg83
S"(obj={'anti_star_dict': {123L: [0, 1, 2, 3, 4], 126L: [0, 1, 2, 3, 4], 127L: [0, 1, 2, 3, 4], 128L: [0, 1, 2, 3, 4], 129L: [0, 1, 2, 3, 4], 130L: [0, 1, 2, 3, 4], 131L: [0, 1, 2, 3, 4]}, 'half_star_dict': {123L: False, 126L: False, 127L: False, 128L: False, 129L: False, 130L: False, 131L: False}, 'images_dict': {123L: <bound method Rows.first of <Rows (0)>>, 126L: <bound method Rows.first of <Rows (0)>>, 127L: <bound method Rows.first of <Rows (0)>>, 128L: <bound method Rows.first of <Rows (0)>>, 129L: <bound method Rows.first of <Rows (0)>>, 130L: <bound method Rows.first of <Rows (0)>>, 131L: <bound method Rows.first of <Rows (0)>>}, 'post_list': [{'avg_rate': 0.0, 'body': '', 'category': 'art', 'created_on': datetime.datetime(2015, 12, 9, 21, 41, 51), 'id': 131L, 'title': 'wow', 'user_id': 5L}, {'avg_rate': 0.0, 'body': 'test', 'category': 'art', 'created_on': datetime.datetime(2015, 12, 9, 21, 4, 17), 'id': 130L, 'title': 'wow this is sucks', 'user_id': 5L}, {'avg_rate': 0.0, 'body': '', 'category': 'art', 'created_on': datetime.datetime(2015, 12, 9, 19, 6, 19), 'id': 129L, 'title': 'testing 123', 'user_id': 8L}, {'avg_rate': 0.0, 'body': 'oaifjiofejafiojaofjeiwoa[jfwajef[oia[wjfepoj', 'category': 'art', 'created_on': datetime.datetime(2015, 12, 8, 22, 55, 13), 'id': 128L, 'title': 'goooaiejfoiajefoiajfoiaejfoiajoiefjoiajifej\\r\\nepa...jajfioejpaofijijefijaiojefiajf\\r\\noaijiafojaopjfoei', 'user_id': 7L}, {'avg_rate': 0.0, 'body': 'ioaei', 'category': 'art', 'created_on': datetime.datetime(2015, 12, 8, 22, 54, 33), 'id': 127L, 'title': 'test', 'user_id': 5L}, {'avg_rate': 0.0, 'body': 'wee', 'category': 'art', 'created_on': datetime.datetime(2015, 12, 8, 22, 53, 33), 'id': 126L, 'title': 'wow', 'user_id': 5L}, {'avg_rate': 0.0, 'body': 'thanks', 'category': 'art', 'created_on': datetime.datetime(2015, 12, 8, 19, 18, 18), 'id': 123L, 'title': 'this is very cool', 'user_id': 5L}], 'star_dict': {123L: [], 126L: [], 127L: [], 128L: [], 129L: [], 130L: [], 131L: []}}, skipkeys=False, ensure_ascii=True, check_circular=True, allow_nan=True, cls=<class 'json.encoder.JSONEncoder'>, indent=None, separators=None, encoding='utf-8', default=<function custom_json>, sort_keys=False, **kw={})"
p206
sg85
S'dumps'
p207
sa(dp208
g62
S'C:\\Python27\\lib\\json\\encoder.py'
p209
sg64
(dp210
S'self'
p211
S'<json.encoder.JSONEncoder object>'
p212
sS'o'
S"{'anti_star_dict': {123L: [0, 1, 2, 3, 4], 126L: [0, 1, 2, 3, 4], 127L: [0, 1, 2, 3, 4], 128L: [0, 1, 2, 3, 4], 129L: [0, 1, 2, 3, 4], 130L: [0, 1, 2, 3, 4], 131L: [0, 1, 2, 3, 4]}, 'half_star_dict': {123L: False, 126L: False, 127L: False, 128L: False, 129L: False, 130L: False, 131L: False}, 'images_dict': {123L: <bound method Rows.first of <Rows (0)>>, 126L: <bound method Rows.first of <Rows (0)>>, 127L: <bound method Rows.first of <Rows (0)>>, 128L: <bound method Rows.first of <Rows (0)>>, 129L: <bound method Rows.first of <Rows (0)>>, 130L: <bound method Rows.first of <Rows (0)>>, 131L: <bound method Rows.first of <Rows (0)>>}, 'post_list': [{'avg_rate': 0.0, 'body': '', 'category': 'art', 'created_on': datetime.datetime(2015, 12, 9, 21, 41, 51), 'id': 131L, 'title': 'wow', 'user_id': 5L}, {'avg_rate': 0.0, 'body': 'test', 'category': 'art', 'created_on': datetime.datetime(2015, 12, 9, 21, 4, 17), 'id': 130L, 'title': 'wow this is sucks', 'user_id': 5L}, {'avg_rate': 0.0, 'body': '', 'category': 'art', 'created_on': datetime.datetime(2015, 12, 9, 19, 6, 19), 'id': 129L, 'title': 'testing 123', 'user_id': 8L}, {'avg_rate': 0.0, 'body': 'oaifjiofejafiojaofjeiwoa[jfwajef[oia[wjfepoj', 'category': 'art', 'created_on': datetime.datetime(2015, 12, 8, 22, 55, 13), 'id': 128L, 'title': 'goooaiejfoiajefoiajfoiaejfoiajoiefjoiajifej\\r\\nepa...jajfioejpaofijijefijaiojefiajf\\r\\noaijiafojaopjfoei', 'user_id': 7L}, {'avg_rate': 0.0, 'body': 'ioaei', 'category': 'art', 'created_on': datetime.datetime(2015, 12, 8, 22, 54, 33), 'id': 127L, 'title': 'test', 'user_id': 5L}, {'avg_rate': 0.0, 'body': 'wee', 'category': 'art', 'created_on': datetime.datetime(2015, 12, 8, 22, 53, 33), 'id': 126L, 'title': 'wow', 'user_id': 5L}, {'avg_rate': 0.0, 'body': 'thanks', 'category': 'art', 'created_on': datetime.datetime(2015, 12, 8, 19, 18, 18), 'id': 123L, 'title': 'this is very cool', 'user_id': 5L}], 'star_dict': {123L: [], 126L: [], 127L: [], 128L: [], 129L: [], 130L: [], 131L: []}}"
p213
sS'self.iterencode'
p214
S'<bound method JSONEncoder.iterencode of <json.encoder.JSONEncoder object>>'
p215
sS'_one_shot'
p216
g106
sS'chunks'
p217
g106
sS'builtinTrue'
p218
S'True'
p219
ssg70
I207
sg71
(dp220
I202
S'            else:'
p221
sI203
S'                return encode_basestring(o)'
p222
sI204
S"        # This doesn't pass the iterator directly to ''.join() because the"
p223
sI205
S"        # exceptions aren't as detailed.  The list call should be roughly"
p224
sI206
S"        # equivalent to the PySequence_Fast that ''.join() would do."
p225
sI207
S'        chunks = self.iterencode(o, _one_shot=True)'
p226
sI208
S'        if not isinstance(chunks, (list, tuple)):'
p227
sI209
S'            chunks = list(chunks)'
p228
sI210
S"        return ''.join(chunks)"
p229
sI211
S''
ssg83
S"(self=<json.encoder.JSONEncoder object>, o={'anti_star_dict': {123L: [0, 1, 2, 3, 4], 126L: [0, 1, 2, 3, 4], 127L: [0, 1, 2, 3, 4], 128L: [0, 1, 2, 3, 4], 129L: [0, 1, 2, 3, 4], 130L: [0, 1, 2, 3, 4], 131L: [0, 1, 2, 3, 4]}, 'half_star_dict': {123L: False, 126L: False, 127L: False, 128L: False, 129L: False, 130L: False, 131L: False}, 'images_dict': {123L: <bound method Rows.first of <Rows (0)>>, 126L: <bound method Rows.first of <Rows (0)>>, 127L: <bound method Rows.first of <Rows (0)>>, 128L: <bound method Rows.first of <Rows (0)>>, 129L: <bound method Rows.first of <Rows (0)>>, 130L: <bound method Rows.first of <Rows (0)>>, 131L: <bound method Rows.first of <Rows (0)>>}, 'post_list': [{'avg_rate': 0.0, 'body': '', 'category': 'art', 'created_on': datetime.datetime(2015, 12, 9, 21, 41, 51), 'id': 131L, 'title': 'wow', 'user_id': 5L}, {'avg_rate': 0.0, 'body': 'test', 'category': 'art', 'created_on': datetime.datetime(2015, 12, 9, 21, 4, 17), 'id': 130L, 'title': 'wow this is sucks', 'user_id': 5L}, {'avg_rate': 0.0, 'body': '', 'category': 'art', 'created_on': datetime.datetime(2015, 12, 9, 19, 6, 19), 'id': 129L, 'title': 'testing 123', 'user_id': 8L}, {'avg_rate': 0.0, 'body': 'oaifjiofejafiojaofjeiwoa[jfwajef[oia[wjfepoj', 'category': 'art', 'created_on': datetime.datetime(2015, 12, 8, 22, 55, 13), 'id': 128L, 'title': 'goooaiejfoiajefoiajfoiaejfoiajoiefjoiajifej\\r\\nepa...jajfioejpaofijijefijaiojefiajf\\r\\noaijiafojaopjfoei', 'user_id': 7L}, {'avg_rate': 0.0, 'body': 'ioaei', 'category': 'art', 'created_on': datetime.datetime(2015, 12, 8, 22, 54, 33), 'id': 127L, 'title': 'test', 'user_id': 5L}, {'avg_rate': 0.0, 'body': 'wee', 'category': 'art', 'created_on': datetime.datetime(2015, 12, 8, 22, 53, 33), 'id': 126L, 'title': 'wow', 'user_id': 5L}, {'avg_rate': 0.0, 'body': 'thanks', 'category': 'art', 'created_on': datetime.datetime(2015, 12, 8, 19, 18, 18), 'id': 123L, 'title': 'this is very cool', 'user_id': 5L}], 'star_dict': {123L: [], 126L: [], 127L: [], 128L: [], 129L: [], 130L: [], 131L: []}})"
p230
sg85
S'encode'
p231
sa(dp232
g62
S'C:\\Python27\\lib\\json\\encoder.py'
p233
sg64
(dp234
S'_iterencode'
p235
S'<_json.Encoder object>'
p236
sS'o'
S"{'anti_star_dict': {123L: [0, 1, 2, 3, 4], 126L: [0, 1, 2, 3, 4], 127L: [0, 1, 2, 3, 4], 128L: [0, 1, 2, 3, 4], 129L: [0, 1, 2, 3, 4], 130L: [0, 1, 2, 3, 4], 131L: [0, 1, 2, 3, 4]}, 'half_star_dict': {123L: False, 126L: False, 127L: False, 128L: False, 129L: False, 130L: False, 131L: False}, 'images_dict': {123L: <bound method Rows.first of <Rows (0)>>, 126L: <bound method Rows.first of <Rows (0)>>, 127L: <bound method Rows.first of <Rows (0)>>, 128L: <bound method Rows.first of <Rows (0)>>, 129L: <bound method Rows.first of <Rows (0)>>, 130L: <bound method Rows.first of <Rows (0)>>, 131L: <bound method Rows.first of <Rows (0)>>}, 'post_list': [{'avg_rate': 0.0, 'body': '', 'category': 'art', 'created_on': datetime.datetime(2015, 12, 9, 21, 41, 51), 'id': 131L, 'title': 'wow', 'user_id': 5L}, {'avg_rate': 0.0, 'body': 'test', 'category': 'art', 'created_on': datetime.datetime(2015, 12, 9, 21, 4, 17), 'id': 130L, 'title': 'wow this is sucks', 'user_id': 5L}, {'avg_rate': 0.0, 'body': '', 'category': 'art', 'created_on': datetime.datetime(2015, 12, 9, 19, 6, 19), 'id': 129L, 'title': 'testing 123', 'user_id': 8L}, {'avg_rate': 0.0, 'body': 'oaifjiofejafiojaofjeiwoa[jfwajef[oia[wjfepoj', 'category': 'art', 'created_on': datetime.datetime(2015, 12, 8, 22, 55, 13), 'id': 128L, 'title': 'goooaiejfoiajefoiajfoiaejfoiajoiefjoiajifej\\r\\nepa...jajfioejpaofijijefijaiojefiajf\\r\\noaijiafojaopjfoei', 'user_id': 7L}, {'avg_rate': 0.0, 'body': 'ioaei', 'category': 'art', 'created_on': datetime.datetime(2015, 12, 8, 22, 54, 33), 'id': 127L, 'title': 'test', 'user_id': 5L}, {'avg_rate': 0.0, 'body': 'wee', 'category': 'art', 'created_on': datetime.datetime(2015, 12, 8, 22, 53, 33), 'id': 126L, 'title': 'wow', 'user_id': 5L}, {'avg_rate': 0.0, 'body': 'thanks', 'category': 'art', 'created_on': datetime.datetime(2015, 12, 8, 19, 18, 18), 'id': 123L, 'title': 'this is very cool', 'user_id': 5L}], 'star_dict': {123L: [], 126L: [], 127L: [], 128L: [], 129L: [], 130L: [], 131L: []}}"
p237
ssg70
I270
sg71
(dp238
I265
S'        else:'
p239
sI266
S'            _iterencode = _make_iterencode('
p240
sI267
S'                markers, self.default, _encoder, self.indent, floatstr,'
p241
sI268
S'                self.key_separator, self.item_separator, self.sort_keys,'
p242
sI269
S'                self.skipkeys, _one_shot)'
p243
sI270
S'        return _iterencode(o, 0)'
p244
sI271
S''
sI272
S'def _make_iterencode(markers, _default, _encoder, _indent, _floatstr,'
p245
sI273
S'        _key_separator, _item_separator, _sort_keys, _skipkeys, _one_shot,'
p246
sI274
S'        ## HACK: hand-optimized bytecode; turn globals into locals'
p247
ssg83
S"(self=<json.encoder.JSONEncoder object>, o={'anti_star_dict': {123L: [0, 1, 2, 3, 4], 126L: [0, 1, 2, 3, 4], 127L: [0, 1, 2, 3, 4], 128L: [0, 1, 2, 3, 4], 129L: [0, 1, 2, 3, 4], 130L: [0, 1, 2, 3, 4], 131L: [0, 1, 2, 3, 4]}, 'half_star_dict': {123L: False, 126L: False, 127L: False, 128L: False, 129L: False, 130L: False, 131L: False}, 'images_dict': {123L: <bound method Rows.first of <Rows (0)>>, 126L: <bound method Rows.first of <Rows (0)>>, 127L: <bound method Rows.first of <Rows (0)>>, 128L: <bound method Rows.first of <Rows (0)>>, 129L: <bound method Rows.first of <Rows (0)>>, 130L: <bound method Rows.first of <Rows (0)>>, 131L: <bound method Rows.first of <Rows (0)>>}, 'post_list': [{'avg_rate': 0.0, 'body': '', 'category': 'art', 'created_on': datetime.datetime(2015, 12, 9, 21, 41, 51), 'id': 131L, 'title': 'wow', 'user_id': 5L}, {'avg_rate': 0.0, 'body': 'test', 'category': 'art', 'created_on': datetime.datetime(2015, 12, 9, 21, 4, 17), 'id': 130L, 'title': 'wow this is sucks', 'user_id': 5L}, {'avg_rate': 0.0, 'body': '', 'category': 'art', 'created_on': datetime.datetime(2015, 12, 9, 19, 6, 19), 'id': 129L, 'title': 'testing 123', 'user_id': 8L}, {'avg_rate': 0.0, 'body': 'oaifjiofejafiojaofjeiwoa[jfwajef[oia[wjfepoj', 'category': 'art', 'created_on': datetime.datetime(2015, 12, 8, 22, 55, 13), 'id': 128L, 'title': 'goooaiejfoiajefoiajfoiaejfoiajoiefjoiajifej\\r\\nepa...jajfioejpaofijijefijaiojefiajf\\r\\noaijiafojaopjfoei', 'user_id': 7L}, {'avg_rate': 0.0, 'body': 'ioaei', 'category': 'art', 'created_on': datetime.datetime(2015, 12, 8, 22, 54, 33), 'id': 127L, 'title': 'test', 'user_id': 5L}, {'avg_rate': 0.0, 'body': 'wee', 'category': 'art', 'created_on': datetime.datetime(2015, 12, 8, 22, 53, 33), 'id': 126L, 'title': 'wow', 'user_id': 5L}, {'avg_rate': 0.0, 'body': 'thanks', 'category': 'art', 'created_on': datetime.datetime(2015, 12, 8, 19, 18, 18), 'id': 123L, 'title': 'this is very cool', 'user_id': 5L}], 'star_dict': {123L: [], 126L: [], 127L: [], 128L: [], 129L: [], 130L: [], 131L: []}}, _one_shot=True)"
p248
sg85
S'iterencode'
p249
sa(dp250
g62
S'C:\\Users\\Taoh\\Desktop\\git\\Project-cmps183\\web2py\\gluon\\serializers.py'
p251
sg64
(dp252
S'builtinrepr'
p253
S'<built-in function repr>'
p254
sS'builtinTypeError'
p255
S"<type 'exceptions.TypeError'>"
p256
sS'o'
S'<bound method Rows.first of <Rows (0)>>'
p257
ssg70
I110
sg71
(dp258
I105
S"    elif hasattr(o, 'as_list') and callable(o.as_list):"
p259
sI106
S'        return o.as_list()'
p260
sI107
S"    elif hasattr(o, 'as_dict') and callable(o.as_dict):"
p261
sI108
S'        return o.as_dict()'
p262
sI109
S'    else:'
p263
sI110
S'        raise TypeError(repr(o) + " is not JSON serializable")'
p264
sI111
S''
sI112
S''
sI113
S'def xml_rec(value, key, quote=True):'
p265
sI114
S"    if hasattr(value, 'custom_xml') and callable(value.custom_xml):"
p266
ssg83
S'(o=<bound method Rows.first of <Rows (0)>>)'
p267
sg85
S'custom_json'
p268
sasS'pyver'
p269
S'Python 2.7.10: C:\\Python27\\python.exe (prefix: C:\\Python27)'
p270
sS'session'
p271
g57
(S's\xe6\x08\x00\x00<div><table><tr><td style="font-weight:bold;vertical-align:top;">auth</td><td style="vertical-align:top;">:</td><td><div><table><tr><td style="font-weight:bold;vertical-align:top;">expiration</td><td style="vertical-align:top;">:</td><td><div>3600</div></td></tr><tr><td style="font-weight:bold;vertical-align:top;">hmac_key</td><td style="vertical-align:top;">:</td><td><div>edd2e980-0e77-4f73-9740-79152b176f10</div></td></tr><tr><td style="font-weight:bold;vertical-align:top;">last_visit</td><td style="vertical-align:top;">:</td><td><div>datetime.datetime(2015, 12, 9, 21, 41, 18, 971000)</div></td></tr><tr><td style="font-weight:bold;vertical-align:top;">remember_me</td><td style="vertical-align:top;">:</td><td><div>False</div></td></tr><tr><td style="font-weight:bold;vertical-align:top;">user</td><td style="vertical-align:top;">:</td><td><div><table><tr><td style="font-weight:bold;vertical-align:top;">email</td><td style="vertical-align:top;">:</td><td><div>tmgreen@ucsc.edu</div></td></tr><tr><td style="font-weight:bold;vertical-align:top;">first_name</td><td style="vertical-align:top;">:</td><td><div>Taoh</div></td></tr><tr><td style="font-weight:bold;vertical-align:top;">id</td><td style="vertical-align:top;">:</td><td><div>5L</div></td></tr><tr><td style="font-weight:bold;vertical-align:top;">last_name</td><td style="vertical-align:top;">:</td><td><div>Green</div></td></tr><tr><td style="font-weight:bold;vertical-align:top;">registration_id</td><td style="vertical-align:top;">:</td><td><div></div></td></tr><tr><td style="font-weight:bold;vertical-align:top;">registration_key</td><td style="vertical-align:top;">:</td><td><div></div></td></tr><tr><td style="font-weight:bold;vertical-align:top;">reset_password_key</td><td style="vertical-align:top;">:</td><td><div></div></td></tr></table></div></td></tr><tr><td style="font-weight:bold;vertical-align:top;">user_groups</td><td style="vertical-align:top;">:</td><td><div><table><tr><td style="font-weight:bold;vertical-align:top;">5</td><td style="vertical-align:top;">:</td><td><div>user_5</div></td></tr></table></div></td></tr></table></div></td></tr><tr><td style="font-weight:bold;vertical-align:top;">flash</td><td style="vertical-align:top;">:</td><td><div>None</div></td></tr></table></div>'
tRp272
sS'etype'
p273
S"<type 'exceptions.TypeError'>"
p274
sS'date'
p275
S'Wed Dec 09 21:46:01 2015'
p276
sS'response'
p277
g57
(S's A\x00\x00<div><table><tr><td style="font-weight:bold;vertical-align:top;">body</td><td style="vertical-align:top;">:</td><td><div>&lt;cStringIO.StringO object at 0x0000000006C80490&gt;</div></td></tr><tr><td style="font-weight:bold;vertical-align:top;">cookies</td><td style="vertical-align:top;">:</td><td><div><table><tr><td style="font-weight:bold;vertical-align:top;">session_id_cmps183_project</td><td style="vertical-align:top;">:</td><td><div>127.0.0.1-242130cf-cf2e-4706-8e79-0e9678e282a3<table><tr><td style="font-weight:bold;vertical-align:top;">comment</td><td style="vertical-align:top;">:</td><td><div></div></td></tr><tr><td style="font-weight:bold;vertical-align:top;">domain</td><td style="vertical-align:top;">:</td><td><div></div></td></tr><tr><td style="font-weight:bold;vertical-align:top;">expires</td><td style="vertical-align:top;">:</td><td><div></div></td></tr><tr><td style="font-weight:bold;vertical-align:top;">httponly</td><td style="vertical-align:top;">:</td><td><div></div></td></tr><tr><td style="font-weight:bold;vertical-align:top;">max-age</td><td style="vertical-align:top;">:</td><td><div></div></td></tr><tr><td style="font-weight:bold;vertical-align:top;">path</td><td style="vertical-align:top;">:</td><td><div>/</div></td></tr><tr><td style="font-weight:bold;vertical-align:top;">secure</td><td style="vertical-align:top;">:</td><td><div></div></td></tr><tr><td style="font-weight:bold;vertical-align:top;">version</td><td style="vertical-align:top;">:</td><td><div></div></td></tr></table></div></td></tr></table></div></td></tr><tr><td style="font-weight:bold;vertical-align:top;">delimiters</td><td style="vertical-align:top;">:</td><td><div><table><tr><td><div>{{</div></td></tr><tr><td><div>}}</div></td></tr></table></div></td></tr><tr><td style="font-weight:bold;vertical-align:top;">files</td><td style="vertical-align:top;">:</td><td><div><table></table></div></td></tr><tr><td style="font-weight:bold;vertical-align:top;">flash</td><td style="vertical-align:top;">:</td><td><div></div></td></tr><tr><td style="font-weight:bold;vertical-align:top;">form_label_separator</td><td style="vertical-align:top;">:</td><td><div></div></td></tr><tr><td style="font-weight:bold;vertical-align:top;">formstyle</td><td style="vertical-align:top;">:</td><td><div>bootstrap3_inline</div></td></tr><tr><td style="font-weight:bold;vertical-align:top;">generic_patterns</td><td style="vertical-align:top;">:</td><td><div><table><tr><td><div>*</div></td></tr></table></div></td></tr><tr><td style="font-weight:bold;vertical-align:top;">google_analytics_id</td><td style="vertical-align:top;">:</td><td><div>None</div></td></tr><tr><td style="font-weight:bold;vertical-align:top;">headers</td><td style="vertical-align:top;">:</td><td><div><table><tr><td style="font-weight:bold;vertical-align:top;">Content-Type</td><td style="vertical-align:top;">:</td><td><div>application/json</div></td></tr><tr><td style="font-weight:bold;vertical-align:top;">X-Powered-By</td><td style="vertical-align:top;">:</td><td><div>web2py</div></td></tr></table></div></td></tr><tr><td style="font-weight:bold;vertical-align:top;">logo</td><td style="vertical-align:top;">:</td><td><div><a class="navbar-brand" href="http://www.web2py.com/" id="web2py-logo"><b>web<span>2</span>py</b>&trade;&nbsp;</a></div></td></tr><tr><td style="font-weight:bold;vertical-align:top;">menu</td><td style="vertical-align:top;">:</td><td><div><table><tr><td><div><table><tr><td><div>Home</div></td></tr><tr><td><div>False</div></td></tr><tr><td><div>/cmps183_project/default/index</div></td></tr><tr><td><div><table></table></div></td></tr></table></div></td></tr><tr><td><div><table><tr><td><div>My Sites</div></td></tr><tr><td><div>False</div></td></tr><tr><td><div>/admin/default/site</div></td></tr></table></div></td></tr><tr><td><div><table><tr><td><div>This App</div></td></tr><tr><td><div>False</div></td></tr><tr><td><div>#</div></td></tr><tr><td><div><table><tr><td><div><table><tr><td><div>Design</div></td></tr><tr><td><div>False</div></td></tr><tr><td><div>/admin/default/design/cmps183_project</div></td></tr></table></div></td></tr><tr><td><div><li class="divider"></li></div></td></tr><tr><td><div><table><tr><td><div>Controller</div></td></tr><tr><td><div>False</div></td></tr><tr><td><div>/admin/default/edit/cmps183_project/controllers/default.py</div></td></tr></table></div></td></tr><tr><td><div><table><tr><td><div>View</div></td></tr><tr><td><div>False</div></td></tr><tr><td><div>/admin/default/edit/cmps183_project/views/default/load_posts_recent.html</div></td></tr></table></div></td></tr><tr><td><div><table><tr><td><div>DB Model</div></td></tr><tr><td><div>False</div></td></tr><tr><td><div>/admin/default/edit/cmps183_project/models/db.py</div></td></tr></table></div></td></tr><tr><td><div><table><tr><td><div>Menu Model</div></td></tr><tr><td><div>False</div></td></tr><tr><td><div>/admin/default/edit/cmps183_project/models/menu.py</div></td></tr></table></div></td></tr><tr><td><div><table><tr><td><div>Config.ini</div></td></tr><tr><td><div>False</div></td></tr><tr><td><div>/admin/default/edit/cmps183_project/private/appconfig.ini</div></td></tr></table></div></td></tr><tr><td><div><table><tr><td><div>Layout</div></td></tr><tr><td><div>False</div></td></tr><tr><td><div>/admin/default/edit/cmps183_project/views/layout.html</div></td></tr></table></div></td></tr><tr><td><div><table><tr><td><div>Stylesheet</div></td></tr><tr><td><div>False</div></td></tr><tr><td><div>/admin/default/edit/cmps183_project/static/css/web2py-bootstrap3.css</div></td></tr></table></div></td></tr><tr><td><div><table><tr><td><div>Database</div></td></tr><tr><td><div>False</div></td></tr><tr><td><div>/cmps183_project/appadmin/index</div></td></tr></table></div></td></tr><tr><td><div><table><tr><td><div>Errors</div></td></tr><tr><td><div>False</div></td></tr><tr><td><div>/admin/default/errors/cmps183_project</div></td></tr></table></div></td></tr><tr><td><div><table><tr><td><div>About</div></td></tr><tr><td><div>False</div></td></tr><tr><td><div>/admin/default/about/cmps183_project</div></td></tr></table></div></td></tr></table></div></td></tr></table></div></td></tr><tr><td><div><table><tr><td><div>web2py.com</div></td></tr><tr><td><div>False</div></td></tr><tr><td><div>#</div></td></tr><tr><td><div><table><tr><td><div><table><tr><td><div>Download</div></td></tr><tr><td><div>False</div></td></tr><tr><td><div>http://www.web2py.com/examples/default/download</div></td></tr></table></div></td></tr><tr><td><div><table><tr><td><div>Support</div></td></tr><tr><td><div>False</div></td></tr><tr><td><div>http://www.web2py.com/examples/default/support</div></td></tr></table></div></td></tr><tr><td><div><table><tr><td><div>Demo</div></td></tr><tr><td><div>False</div></td></tr><tr><td><div>http://web2py.com/demo_admin</div></td></tr></table></div></td></tr><tr><td><div><table><tr><td><div>Quick Examples</div></td></tr><tr><td><div>False</div></td></tr><tr><td><div>http://web2py.com/examples/default/examples</div></td></tr></table></div></td></tr><tr><td><div><table><tr><td><div>FAQ</div></td></tr><tr><td><div>False</div></td></tr><tr><td><div>http://web2py.com/AlterEgo</div></td></tr></table></div></td></tr><tr><td><div><table><tr><td><div>Videos</div></td></tr><tr><td><div>False</div></td></tr><tr><td><div>http://www.web2py.com/examples/default/videos/</div></td></tr></table></div></td></tr><tr><td><div><table><tr><td><div>Free Applications</div></td></tr><tr><td><div>False</div></td></tr><tr><td><div>http://web2py.com/appliances</div></td></tr></table></div></td></tr><tr><td><div><table><tr><td><div>Plugins</div></td></tr><tr><td><div>False</div></td></tr><tr><td><div>http://web2py.com/plugins</div></td></tr></table></div></td></tr><tr><td><div><table><tr><td><div>Recipes</div></td></tr><tr><td><div>False</div></td></tr><tr><td><div>http://web2pyslices.com/</div></td></tr></table></div></td></tr></table></div></td></tr></table></div></td></tr><tr><td><div><table><tr><td><div>Documentation</div></td></tr><tr><td><div>False</div></td></tr><tr><td><div>#</div></td></tr><tr><td><div><table><tr><td><div><table><tr><td><div>Online book</div></td></tr><tr><td><div>False</div></td></tr><tr><td><div>http://www.web2py.com/book</div></td></tr></table></div></td></tr><tr><td><div><li class="divider"></li></div></td></tr><tr><td><div><table><tr><td><div>Preface</div></td></tr><tr><td><div>False</div></td></tr><tr><td><div>http://www.web2py.com/book/default/chapter/00</div></td></tr></table></div></td></tr><tr><td><div><table><tr><td><div>Introduction</div></td></tr><tr><td><div>False</div></td></tr><tr><td><div>http://www.web2py.com/book/default/chapter/01</div></td></tr></table></div></td></tr><tr><td><div><table><tr><td><div>Python</div></td></tr><tr><td><div>False</div></td></tr><tr><td><div>http://www.web2py.com/book/default/chapter/02</div></td></tr></table></div></td></tr><tr><td><div><table><tr><td><div>Overview</div></td></tr><tr><td><div>False</div></td></tr><tr><td><div>http://www.web2py.com/book/default/chapter/03</div></td></tr></table></div></td></tr><tr><td><div><table><tr><td><div>The Core</div></td></tr><tr><td><div>False</div></td></tr><tr><td><div>http://www.web2py.com/book/default/chapter/04</div></td></tr></table></div></td></tr><tr><td><div><table><tr><td><div>The Views</div></td></tr><tr><td><div>False</div></td></tr><tr><td><div>http://www.web2py.com/book/default/chapter/05</div></td></tr></table></div></td></tr><tr><td><div><table><tr><td><div>Database</div></td></tr><tr><td><div>False</div></td></tr><tr><td><div>http://www.web2py.com/book/default/chapter/06</div></td></tr></table></div></td></tr><tr><td><div><table><tr><td><div>Forms and Validators</div></td></tr><tr><td><div>False</div></td></tr><tr><td><div>http://www.web2py.com/book/default/chapter/07</div></td></tr></table></div></td></tr><tr><td><div><table><tr><td><div>Email and SMS</div></td></tr><tr><td><div>False</div></td></tr><tr><td><div>http://www.web2py.com/book/default/chapter/08</div></td></tr></table></div></td></tr><tr><td><div><table><tr><td><div>Access Control</div></td></tr><tr><td><div>False</div></td></tr><tr><td><div>http://www.web2py.com/book/default/chapter/09</div></td></tr></table></div></td></tr><tr><td><div><table><tr><td><div>Services</div></td></tr><tr><td><div>False</div></td></tr><tr><td><div>http://www.web2py.com/book/default/chapter/10</div></td></tr></table></div></td></tr><tr><td><div><table><tr><td><div>Ajax Recipes</div></td></tr><tr><td><div>False</div></td></tr><tr><td><div>http://www.web2py.com/book/default/chapter/11</div></td></tr></table></div></td></tr><tr><td><div><table><tr><td><div>Components and Plugins</div></td></tr><tr><td><div>False</div></td></tr><tr><td><div>http://www.web2py.com/book/default/chapter/12</div></td></tr></table></div></td></tr><tr><td><div><table><tr><td><div>Deployment Recipes</div></td></tr><tr><td><div>False</div></td></tr><tr><td><div>http://www.web2py.com/book/default/chapter/13</div></td></tr></table></div></td></tr><tr><td><div><table><tr><td><div>Other Recipes</div></td></tr><tr><td><div>False</div></td></tr><tr><td><div>http://www.web2py.com/book/default/chapter/14</div></td></tr></table></div></td></tr><tr><td><div><table><tr><td><div>Helping web2py</div></td></tr><tr><td><div>False</div></td></tr><tr><td><div>http://www.web2py.com/book/default/chapter/15</div></td></tr></table></div></td></tr><tr><td><div><table><tr><td><div>Buy web2py\'s book</div></td></tr><tr><td><div>False</div></td></tr><tr><td><div>http://stores.lulu.com/web2py</div></td></tr></table></div></td></tr></table></div></td></tr></table></div></td></tr><tr><td><div><table><tr><td><div>Community</div></td></tr><tr><td><div>False</div></td></tr><tr><td><div>None</div></td></tr><tr><td><div><table><tr><td><div><table><tr><td><div>Groups</div></td></tr><tr><td><div>False</div></td></tr><tr><td><div>http://www.web2py.com/examples/default/usergroups</div></td></tr></table></div></td></tr><tr><td><div><table><tr><td><div>Twitter</div></td></tr><tr><td><div>False</div></td></tr><tr><td><div>http://twitter.com/web2py</div></td></tr></table></div></td></tr><tr><td><div><table><tr><td><div>Live Chat</div></td></tr><tr><td><div>False</div></td></tr><tr><td><div>http://webchat.freenode.net/?channels=web2py</div></td></tr></table></div></td></tr></table></div></td></tr></table></div></td></tr></table></div></td></tr><tr><td style="font-weight:bold;vertical-align:top;">meta</td><td style="vertical-align:top;">:</td><td><div><table><tr><td style="font-weight:bold;vertical-align:top;">author</td><td style="vertical-align:top;">:</td><td><div>Your Name &lt;you@example.com&gt;</div></td></tr><tr><td style="font-weight:bold;vertical-align:top;">description</td><td style="vertical-align:top;">:</td><td><div>a cool new app</div></td></tr><tr><td style="font-weight:bold;vertical-align:top;">generator</td><td style="vertical-align:top;">:</td><td><div>Web2py Web Framework</div></td></tr><tr><td style="font-weight:bold;vertical-align:top;">keywords</td><td style="vertical-align:top;">:</td><td><div>web2py, python, framework</div></td></tr></table></div></td></tr><tr><td style="font-weight:bold;vertical-align:top;">models_to_run</td><td style="vertical-align:top;">:</td><td><div><table><tr><td><div>^\\w+\\.py$</div></td></tr><tr><td><div>^default/\\w+\\.py$</div></td></tr><tr><td><div>^default/load_posts_recent/\\w+\\.py$</div></td></tr></table></div></td></tr><tr><td style="font-weight:bold;vertical-align:top;">postprocessing</td><td style="vertical-align:top;">:</td><td><div><table></table></div></td></tr><tr><td style="font-weight:bold;vertical-align:top;">session_client</td><td style="vertical-align:top;">:</td><td><div>127.0.0.1</div></td></tr><tr><td style="font-weight:bold;vertical-align:top;">session_cookie_compression_level</td><td style="vertical-align:top;">:</td><td><div>None</div></td></tr><tr><td style="font-weight:bold;vertical-align:top;">session_cookie_expires</td><td style="vertical-align:top;">:</td><td><div>None</div></td></tr><tr><td style="font-weight:bold;vertical-align:top;">session_cookie_key</td><td style="vertical-align:top;">:</td><td><div>None</div></td></tr><tr><td style="font-weight:bold;vertical-align:top;">session_data_name</td><td style="vertical-align:top;">:</td><td><div>session_data_cmps183_project</div></td></tr><tr><td style="font-weight:bold;vertical-align:top;">session_file</td><td style="vertical-align:top;">:</td><td><div>&lt;open file &#x27;C:\\\\Users\\\\Taoh\\\\Desktop\\\\git\\\\Project-cmps183\\\\web2py\\\\applications\\\\cmps183_project\\\\sessions\\\\048\\\\026\\\\127.0.0.1-242130cf-cf2e-4706-8e79-0e9678e282a3&#x27;, mode &#x27;rb+&#x27; at 0x0000000008127AE0&gt;</div></td></tr><tr><td style="font-weight:bold;vertical-align:top;">session_filename</td><td style="vertical-align:top;">:</td><td><div>C:\\Users\\Taoh\\Desktop\\git\\Project-cmps183\\web2py\\applications\\cmps183_project\\sessions\\127.0.0.1-242130cf-cf2e-4706-8e79-0e9678e282a3</div></td></tr><tr><td style="font-weight:bold;vertical-align:top;">session_hash</td><td style="vertical-align:top;">:</td><td><div>184d3d4caafc373546357787ec5b33c7</div></td></tr><tr><td style="font-weight:bold;vertical-align:top;">session_id</td><td style="vertical-align:top;">:</td><td><div>127.0.0.1-242130cf-cf2e-4706-8e79-0e9678e282a3</div></td></tr><tr><td style="font-weight:bold;vertical-align:top;">session_id_name</td><td style="vertical-align:top;">:</td><td><div>session_id_cmps183_project</div></td></tr><tr><td style="font-weight:bold;vertical-align:top;">session_locked</td><td style="vertical-align:top;">:</td><td><div>True</div></td></tr><tr><td style="font-weight:bold;vertical-align:top;">session_masterapp</td><td style="vertical-align:top;">:</td><td><div>cmps183_project</div></td></tr><tr><td style="font-weight:bold;vertical-align:top;">session_new</td><td style="vertical-align:top;">:</td><td><div>False</div></td></tr><tr><td style="font-weight:bold;vertical-align:top;">session_storage_type</td><td style="vertical-align:top;">:</td><td><div>file</div></td></tr><tr><td style="font-weight:bold;vertical-align:top;">status</td><td style="vertical-align:top;">:</td><td><div>200</div></td></tr><tr><td style="font-weight:bold;vertical-align:top;">subtitle</td><td style="vertical-align:top;">:</td><td><div></div></td></tr><tr><td style="font-weight:bold;vertical-align:top;">title</td><td style="vertical-align:top;">:</td><td><div>Cmps183 Project</div></td></tr><tr><td style="font-weight:bold;vertical-align:top;">view</td><td style="vertical-align:top;">:</td><td><div>default/load_posts_recent.html</div></td></tr></table></div>'
tRp278
sS'locals'
p279
(dp280
S'o'
S'<bound method Rows.first of <Rows (0)>>'
p281
sssS'traceback'
p282
S'Traceback (most recent call last):\n  File "C:\\Users\\Taoh\\Desktop\\git\\Project-cmps183\\web2py\\gluon\\restricted.py", line 227, in restricted\n    exec ccode in environment\n  File "C:\\Users\\Taoh\\Desktop\\git\\Project-cmps183\\web2py\\applications\\cmps183_project\\controllers/default.py", line 355, in <module>\n  File "C:\\Users\\Taoh\\Desktop\\git\\Project-cmps183\\web2py\\gluon\\globals.py", line 412, in <lambda>\n    self._caller = lambda f: f()\n  File "C:\\Users\\Taoh\\Desktop\\git\\Project-cmps183\\web2py\\applications\\cmps183_project\\controllers/default.py", line 161, in load_posts_recent\n    return response.json(dict(post_list=posts.as_list(), images_dict=images_dict, star_dict=star_dict, anti_star_dict=anti_star_dict, half_star_dict=half_star_dict))\n  File "C:\\Users\\Taoh\\Desktop\\git\\Project-cmps183\\web2py\\gluon\\globals.py", line 656, in json\n    return json(data, default=default or custom_json)\n  File "C:\\Users\\Taoh\\Desktop\\git\\Project-cmps183\\web2py\\gluon\\serializers.py", line 137, in json\n    value = json_parser.dumps(value, default=default)\n  File "C:\\Python27\\lib\\json\\__init__.py", line 250, in dumps\n    sort_keys=sort_keys, **kw).encode(obj)\n  File "C:\\Python27\\lib\\json\\encoder.py", line 207, in encode\n    chunks = self.iterencode(o, _one_shot=True)\n  File "C:\\Python27\\lib\\json\\encoder.py", line 270, in iterencode\n    return _iterencode(o, 0)\n  File "C:\\Users\\Taoh\\Desktop\\git\\Project-cmps183\\web2py\\gluon\\serializers.py", line 110, in custom_json\n    raise TypeError(repr(o) + " is not JSON serializable")\nTypeError: <bound method Rows.first of <Rows (0)>> is not JSON serializable\n'
p283
s.