(dp1
S'output'
p2
S"<type 'exceptions.KeyError'> 123L"
p3
sS'layer'
p4
S'C:\\Users\\Taoh\\Desktop\\git\\Project-cmps183\\web2py\\applications\\cmps183_project\\views\\default/show_posts.html'
p5
sS'code'
p6
S'response.write(\'<!DOCTYPE html>\\r\\n<!--[if (gt IE 9)|!(IE)]><!--> <html class="no-js" lang="\', escape=False)\nresponse.write(T.accepted_language or \'en\')\nresponse.write(\'"> <!--<![endif]-->\\r\\n  <head>\\r\\n    <meta charset="utf-8">\\r\\n    <!-- www.phpied.com/conditional-comments-block-downloads/ -->\\r\\n    <!-- Always force latest IE rendering engine\\r\\n         (even in intranet) & Chrome Frame\\r\\n         Remove this if you use the .htaccess -->\\r\\n    <meta http-equiv="X-UA-Compatible" content="IE=edge\', escape=False)\nresponse.write(not request.is_local and \',chrome=1\' or \'\')\nresponse.write(\'">\\r\\n    <!--  Mobile Viewport Fix\\r\\n          j.mp/mobileviewport & davidbcalhoun.com/2010/viewport-metatag\\r\\n          device-width: Occupy full width of the screen in its current orientation\\r\\n          initial-scale = 1.0 retains dimensions instead of zooming out if page height > device height\\r\\n          user-scalable = yes allows the user to zoom in -->\\r\\n    <meta name="viewport" content="width=device-width, initial-scale=1.0">\\r\\n    <title>\', escape=False)\nresponse.write(response.title or request.application)\nresponse.write(\'</title>\\r\\n    <!-- http://dev.w3.org/html5/markup/meta.name.html -->\\r\\n    <meta name="application-name" content="\', escape=False)\nresponse.write(request.application)\nresponse.write(\'">\\r\\n    <!-- Speaking of Google, don\\\'t forget to set your site up:\\r\\n         http://google.com/webmasters -->\\r\\n    <meta name="google-site-verification" content="">\\r\\n    <!-- include stylesheets -->\\r\\n    <link rel="stylesheet" href="\', escape=False)\nresponse.write(URL(\'static\',\'css/bootstrap.min.css\'))\nresponse.write(\'"/>\\r\\n    <link rel="stylesheet" href="\', escape=False)\nresponse.write(URL(\'static\',\'css/bootstrap-theme.min.css\'))\nresponse.write(\'"/>\\r\\n    <link rel="stylesheet" href="\', escape=False)\nresponse.write(URL(\'static\',\'css/web2py-bootstrap3.css\'))\nresponse.write(\'"/>\\r\\n    <link rel="stylesheet" href="\', escape=False)\nresponse.write(URL(\'static\',\'css/myapp.css\'))\nresponse.write(\'"/>\\r\\n    <link rel="stylesheet" href="\', escape=False)\nresponse.write(URL(\'static\',\'css/pinterest_style.css\'))\nresponse.write(\'"/>\\r\\n    <link rel="stylesheet" href="\', escape=False)\nresponse.write(URL(\'static\', \'font-awesome-4.4.0/css/font-awesome.min.css\'))\nresponse.write(\'"/>\\r\\n      <!--gallery-->\\r\\n\\r\\n      <!--my navmenu-->\\r\\n    <link rel="stylesheet" type="text/css" href="\', escape=False)\nresponse.write(URL(\'static\', \'slide_menu_css/component.css\'))\nresponse.write(\'"/>\\r\\n    <link rel="shortcut icon" href="\', escape=False)\nresponse.write(URL(\'static\',\'images/favicon.ico\'))\nresponse.write(\'" type="image/x-icon">\\r\\n    <link rel="apple-touch-icon" href="\', escape=False)\nresponse.write(URL(\'static\',\'images/favicon.png\'))\nresponse.write(\'">\\r\\n    <script src="\', escape=False)\nresponse.write(URL(\'static\', \'slide_menu_js/modernizr.custom.js\'))\nresponse.write(\'"></script>\\r\\n    <!-- All JavaScript at the bottom, except for Modernizr which enables\\r\\n         HTML5 elements & feature detects -->\\r\\n    <script src="\', escape=False)\nresponse.write(URL(\'static\',\'js/modernizr-2.8.3.min.js\'))\nresponse.write(\'"></script>\\r\\n    <!--[if lt IE 9]>\\r\\n        <script src="\', escape=False)\nresponse.write(URL(\'static\',\'js/respond-1.4.2.min.js\'))\nresponse.write(\'"></script>\\r\\n        <![endif]-->\\r\\n    <!-- Favicons -->\\r\\n    \', escape=False)\nresponse.write(\'<script type="text/javascript"><!--\\r\\n    // These variables are used by the web2py_ajax_init function in web2py_ajax.js (which is loaded below).\\r\\n    var w2p_ajax_confirm_message = "\', escape=False)\nresponse.write(T(\'Are you sure you want to delete this object?\'))\nresponse.write(\'";\\r\\n    var w2p_ajax_disable_with_message = "\', escape=False)\nresponse.write(T(\'Working...\'))\nresponse.write(\'";\\r\\n    var w2p_ajax_date_format = "\', escape=False)\nresponse.write(T(\'%Y-%m-%d\'))\nresponse.write(\'";\\r\\n    var w2p_ajax_datetime_format = "\', escape=False)\nresponse.write(T(\'%Y-%m-%d %H:%M:%S\'))\nresponse.write(\'";\\r\\n    var ajax_error_500 = \\\'\', escape=False)\nresponse.write(T.M(\'An error occured, please [[reload %s]] the page\') % URL(args=request.args, vars=request.get_vars))\nresponse.write("\'\\r\\n    //--></script>\\r\\n", escape=False)\nresponse.files.insert(0,URL(\'static\',\'js/jquery.js\'))\nresponse.files.insert(1,URL(\'static\',\'css/calendar.css\'))\nresponse.files.insert(2,URL(\'static\',\'js/calendar.js\'))\nresponse.files.insert(3,URL(\'static\',\'js/web2py.js\'))\nresponse.include_meta()\nresponse.include_files()\nresponse.write(\'\\r\\n\', escape=False)\nresponse.write(\' <!-- this includes jquery.js, calendar.js/.css and web2py.js -->\\r\\n    \', escape=False)\nresponse.write(\'\\r\\n    \', escape=False)\n# using sidebars need to know what sidebar you want to use\nmc0 = \'col-md-12\'\nmc1 = \'col-md-9\'\nmc2 = \'col-md-6\'\nleft_sidebar_enabled = globals().get(\'left_sidebar_enabled\', False)\nright_sidebar_enabled = globals().get(\'right_sidebar_enabled\', False)\nmiddle_column = {0: mc0, 1: mc1, 2: mc2}[\n(left_sidebar_enabled and 1 or 0)+(right_sidebar_enabled and 1 or 0)]\nresponse.write(\'\\r\\n  </head>\\r\\n  <body>\\r\\n\\r\\n    <style>\\r\\n        #showLeft {\\r\\n            font-size: 2.5em;\\r\\n            margin-left: 40px;\\r\\n            cursor: pointer;\\r\\n            color: white;\\r\\n        }\\r\\n        #hideLeft {\\r\\n            font-size: 1em;\\r\\n            cursor:pointer;\\r\\n            margin-left: 35px;\\r\\n            color: #f7f7f7;\\r\\n        }\\r\\n        #menu_bar {\\r\\n            background-image: url("https://abs.twimg.com/a/1449191867/img/t1/lohp_streams_header_bg_v4.png");\\r\\n            /*background-size: cover;*/\\r\\n            padding: 20px 4px 55px 4px;\\r\\n            background-size: cover;\\r\\n            /*fix at top*/\\r\\n            position: fixed;\\r\\n            top: 0;\\r\\n            left: 0;\\r\\n            z-index: 999;\\r\\n            width: 100%;\\r\\n            height: 23px;\\r\\n        }\\r\\n        #login_buttons {\\r\\n            float: right;\\r\\n            margin-right: 20px;\\r\\n        }\\r\\n    </style>\\r\\n    <!--[if lt IE 8]><p class="browserupgrade">You are using an <strong>outdated</strong> browser. Please <a href="http://browsehappy.com/">upgrade your browser</a> to improve your experience.</p><![endif]-->\\r\\n    <div class="flash alert alert-dismissable">\', escape=False)\nresponse.write(response.flash or \'\')\nresponse.write(\'</div>\\r\\n    <!-- Navbar ======================================= -->\\r\\n    <nav class="cbp-spmenu cbp-spmenu-vertical cbp-spmenu-left" id="cbp-spmenu-s1">\\r\\n        <h3>Menu <i id="hideLeft"  class="fa fa-times"></i></h3>\\r\\n\\r\\n        <a style="text-decoration: none;" href="\', escape=False)\nresponse.write(URL(\'default\',\'index.html\'))\nresponse.write(\'">Home</a>\\r\\n        <a style="text-decoration: none;" href="\', escape=False)\nresponse.write(URL(\'default\',\'show_posts/art\'))\nresponse.write(\'">Art</a>\\r\\n        <a style="text-decoration: none;" href="\', escape=False)\nresponse.write(URL(\'default\',\'show_posts/hiking\'))\nresponse.write(\'">Hiking</a>\\r\\n        <a style="text-decoration: none;" href="\', escape=False)\nresponse.write(URL(\'default\',\'show_posts/local_events\'))\nresponse.write(\'">Local Events</a>\\r\\n        <a style="text-decoration: none;" href="\', escape=False)\nresponse.write(URL(\'default\',\'show_posts/night_life\'))\nresponse.write(\'">Night Life</a>\\r\\n        <a style="text-decoration: none;" href="\', escape=False)\nresponse.write(URL(\'default\',\'show_posts/restaurants\'))\nresponse.write(\'">Restaurant</a>\\r\\n        <a style="text-decoration: none;" href="\', escape=False)\nresponse.write(URL(\'default\',\'show_posts/scenic\'))\nresponse.write(\'">Scenic</a>\\r\\n    </nav>\\r\\n    <div id="menu_bar">\\r\\n        <span>\\r\\n                <i id="showLeft" class="fa fa-bars"></i>\\r\\n        </span>\\r\\n        <span id="login_buttons">\\r\\n        \', escape=False)\nif auth.user_id is None:\n    response.write(\'\\r\\n              <!--shows the sign in sign out buttons-->\\r\\n              <span>\\r\\n                    \', escape=False)\n    response.write(A(\'Login\', _class=\'ghost-button\', _href=URL(\'default\', \'user\', args=[\'login\'])))\n    response.write(\'\\r\\n                    \', escape=False)\n    response.write(A(\'Sign Up\', _class=\'ghost-button\', _href=URL(\'default\', \'user\', args=[\'register\'])))\n    response.write(\'\\r\\n              </span>\\r\\n        \', escape=False)\nelse:\n    response.write(\'\\r\\n            <span>\\r\\n                  \', escape=False)\n    response.write(A(\'Edit Profile\', _class=\'ghost-button\', _href=URL(\'default\', \'user\', args=[\'profile\'])))\n    response.write(\'\\r\\n                   \', escape=False)\n    response.write(A(\'Logout\', _class=\'ghost-button\', _href=URL(\'default\', \'user\', args=[\'logout\'])))\n    response.write(\'\\r\\n            </span>\\r\\n        \', escape=False)\n    pass\nresponse.write(\'\\r\\n        </span>\\r\\n    </div>\\r\\n    <!-- Masthead ===================================== -->\\r\\n    \', escape=False)\nresponse.write(\'\\r\\n    \', escape=False)\nresponse.write(\'\\r\\n    <!-- Main ========================================= -->\\r\\n    <!-- Begin page content -->\\r\\n    <div class="container-fluid main-container">\\r\\n      <div class="\', escape=False)\nresponse.write(middle_column)\nresponse.write(\'">\\r\\n        \', escape=False)\nresponse.write(\'\\r\\n        \', escape=False)\nresponse.write(\'\\r\\n\\r\\n\\r\\n<div id="target"></div>\\r\\n\\r\\n<body class="cbp-spmenu-push">\\r\\n\\r\\n\', escape=False)\nfor post in post_list:\n    response.write(\'\\r\\n\\r\\n<img src="\', escape=False)\n    response.write(URL(\'default\', \'download\', args=images_dict[post.id][\'up_file\']))\n    response.write(\'" />\\r\\n\\r\\n\', escape=False)\n    pass\nresponse.write(\'\\r\\n\\r\\n\\r\\n<script id="template" type="text/ractive">\\r\\n\\r\\n  <!--shows the sign in sign out buttons-->\\r\\n        <h1 class="post_header">Posts</h1>\\r\\n\\r\\n       <span>\\r\\n         \', escape=False)\nresponse.write(A(\'Back\', _class=\'btn btn-primary\', _href=URL(\'default\', \'show_boards\', args=[])))\nresponse.write(\'\\r\\n        </span>\\r\\n  \', escape=False)\nif auth.user_id is not None:\n    response.write(\'\\r\\n        <span style = "float:right">\\r\\n        \', escape=False)\n    response.write(A(\'Create Post\', _class=\'btn btn-success\', _href=URL(\'default\', \'add_posts\', args=[post_category])))\n    response.write(\'\\r\\n        </div>\\r\\n  \', escape=False)\n    pass\nresponse.write(\'\\r\\n\\r\\n\\r\\n    <div class="dropdown">\\r\\n        Sort By:\\r\\n      <button class="btn btn-primary dropdown-toggle" type="button" data-toggle="dropdown">\\r\\n        {% #if sort_rated %}\\r\\n            Highest Rating\\r\\n        {% /if %}\\r\\n        {% #if sort_recent %}\\r\\n            Most Recent\\r\\n        {% /if %}\\r\\n\\r\\n      <span class="caret"></span></button>\\r\\n      <ul class="dropdown-menu">\\r\\n        <li class="hover_hand"><a on-click="loadposts:1">\\r\\n            {% #if sort_rated %}\\r\\n            <i class="fa fa-check"></i>\\r\\n            {% /if %}\\r\\n            Highest Rating\\r\\n        </a></li>\\r\\n        <li class="hover_hand"><a on-click="loadposts:2">\\r\\n            {% #if sort_recent %}\\r\\n            <i class="fa fa-check"></i>\\r\\n            {% /if %}\\r\\n            Most Recent\\r\\n        </a></li>\\r\\n      </ul>\\r\\n    </div>\\r\\n\\r\\n<div class="pin_wrapper">\\r\\n<div class="pin_columns">\\r\\n\\r\\n  {% #post_list %}\\r\\n\\r\\n    <div class = "pin hover_hand" on-click="go_to_post:{%id%},{%category%}" >\\r\\n        <p>\\r\\n        <p class="boardtitle">\\r\\n            {% title %}\\r\\n        </p>\\r\\n\\r\\n        <div class="boardbody">\\r\\n            {% #if user_id == \', escape=False)\nresponse.write(auth.user_id)\nresponse.write(\' %}\\r\\n                <p style="float: left">\\r\\n                <a href="\', escape=False)\nresponse.write(URL(\'default\', \'posts_edit\'))\nresponse.write(\'/{%id%}" ><i class="fa fa-pencil fa-2x"></i></a>\\r\\n                </p>\\r\\n                <p style="float: right">\\r\\n                <a href="\', escape=False)\nresponse.write(URL(\'default\', \'delete_post\'))\nresponse.write(\'/{%id%}/{%category%}" ><i class="fa fa-trash fa-2x"></i></a>\\r\\n                </p>\\r\\n            {% /if %}\\r\\n\\r\\n            {% #star_dict[id]%}\\r\\n                <i style = "color: #ffad33" class = "fa fa-star"></i>\\r\\n            {% /star_dict %}\\r\\n\\r\\n            {% #if half_star_dict[id] %}\\r\\n                <span style=" margin-left: -4px;">\\r\\n                <i style = "color: #ffad33" class = "fa fa-star-half-o"></i>\\r\\n                </span>\\r\\n            {% /if %}\\r\\n\\r\\n            <span style=" margin-left: -4px;">\\r\\n            {% #anti_star_dict[id]%}\\r\\n                <i style = "color: #ffad33;" class = "fa fa-star-o"></i>\\r\\n            {% /star_dict %}\\r\\n            </span>\\r\\n            ({% avg_rate %})\\r\\n            <div style="clear: both;"></div>\\r\\n            <p>\\r\\n            Posted On: {% created_on %}\\r\\n            </p>\\r\\n        </div>\\r\\n    </div>\\r\\n  {% /post_list %}\\r\\n </div>\\r\\n</div>\\r\\n\\r\\n  </script>\\r\\n\\r\\n<script>\\r\\n$(function() {\\r\\n\\r\\n  // Ractive object\\r\\n  var MAIN = new Ractive({\\r\\n    el: \\\'#target\\\',\\r\\n    template: \\\'#template\\\',\\r\\n    delimiters: [\\\'{%\\\', \\\'%}\\\'],\\r\\n    tripleDelimiters: [\\\'{%%\\\', \\\'%%}\\\'],\\r\\n    data: {\\r\\n        post_list: [],\\r\\n        star_dict: {},\\r\\n        anti_star_dict: {},\\r\\n        half_star_dict: {},\\r\\n        sort_rated: false,\\r\\n        sort_recent: false,\\r\\n        loading: false\\r\\n    }\\r\\n  });\\r\\n\\r\\n  // Loads the initial list of posts.\\r\\n  $.ajax("\', escape=False)\nresponse.write(URL(\'default\', \'load_posts_recent\', user_signature=True, args=post_category))\nresponse.write(\'",\\r\\n          {\\r\\n            method: \\\'POST\\\',\\r\\n            success: function (data) {\\r\\n                MAIN.set(\\\'post_list\\\', data[\\\'post_list\\\']);\\r\\n                MAIN.set(\\\'star_dict\\\', data[\\\'star_dict\\\']);\\r\\n                MAIN.set(\\\'anti_star_dict\\\', data[\\\'anti_star_dict\\\']);\\r\\n\\r\\n                MAIN.set(\\\'half_star_dict\\\', data[\\\'half_star_dict\\\']);\\r\\n\\r\\n\\r\\n                MAIN.set(\\\'sort_recent\\\', true);\\r\\n                MAIN.set(\\\'sort_rated\\\', false);\\r\\n            }\\r\\n          }\\r\\n  );\\r\\n\\r\\n    //loads the posts by rating or most recent depending on args\\r\\n    MAIN.on("loadposts", function(e, num){\\r\\n        if(num == 1) {\\r\\n             $.ajax("\', escape=False)\nresponse.write(URL(\'default\', \'load_posts_rating\', user_signature=True, args=post_category))\nresponse.write(\'",\\r\\n                      {\\r\\n                        method: \\\'POST\\\',\\r\\n                        success: function (data) {\\r\\n                            MAIN.set(\\\'post_list\\\', data[\\\'post_list\\\']);\\r\\n                            MAIN.set(\\\'star_dict\\\', data[\\\'star_dict\\\']);\\r\\n                            MAIN.set(\\\'anti_star_dict\\\', data[\\\'anti_star_dict\\\']);\\r\\n                            MAIN.set(\\\'half_star_dict\\\', data[\\\'half_star_dict\\\']);\\r\\n                            MAIN.set(\\\'loading\\\', false);\\r\\n\\r\\n                            MAIN.set(\\\'sort_recent\\\', false);\\r\\n                            MAIN.set(\\\'sort_rated\\\', true);\\r\\n                        }\\r\\n                      }\\r\\n              );\\r\\n\\r\\n        }\\r\\n        else if(num==2){\\r\\n            $.ajax("\', escape=False)\nresponse.write(URL(\'default\', \'load_posts_recent\', user_signature=True, args=post_category))\nresponse.write(\'",\\r\\n                      {\\r\\n                        method: \\\'POST\\\',\\r\\n                        success: function (data) {\\r\\n                            MAIN.set(\\\'post_list\\\', data[\\\'post_list\\\']);\\r\\n                            MAIN.set(\\\'star_dict\\\', data[\\\'star_dict\\\']);\\r\\n                            MAIN.set(\\\'anti_star_dict\\\', data[\\\'anti_star_dict\\\']);\\r\\n                            MAIN.set(\\\'half_star_dict\\\', data[\\\'half_star_dict\\\']);\\r\\n                            MAIN.set(\\\'loading\\\', false);\\r\\n\\r\\n                            MAIN.set(\\\'sort_recent\\\', true);\\r\\n                            MAIN.set(\\\'sort_rated\\\', false);\\r\\n                        }\\r\\n                      }\\r\\n              );\\r\\n        }\\r\\n    });\\r\\n\\r\\n    //goes to the page for that post\\r\\n    MAIN.on("go_to_post", function(e, post_id, category){\\r\\n        window.location.href = \\\'\', escape=False)\nresponse.write(URL(\'default\', \'post_page\'))\nresponse.write(\'\\\' + \\\'/\\\' + post_id + \\\'/\\\' + category;\\r\\n    });\\r\\n\\r\\n  // Called every 10s, checks for changes in posts and loads them\\r\\n  function periodic_load() {\\r\\n      var sort_recent = MAIN.get(\\\'sort_recent\\\');\\r\\n      var sort_rated = MAIN.get(\\\'sort_rated\\\');\\r\\n      if(sort_rated) {\\r\\n             $.ajax("\', escape=False)\nresponse.write(URL(\'default\', \'load_posts_rating\', user_signature=True, args=post_category))\nresponse.write(\'",\\r\\n                      {\\r\\n                        method: \\\'POST\\\',\\r\\n                        success: function (data) {\\r\\n                            MAIN.set(\\\'post_list\\\', data[\\\'post_list\\\']);\\r\\n                            MAIN.set(\\\'star_dict\\\', data[\\\'star_dict\\\']);\\r\\n                            MAIN.set(\\\'anti_star_dict\\\', data[\\\'anti_star_dict\\\']);\\r\\n                            MAIN.set(\\\'loading\\\', false);\\r\\n                        }\\r\\n                      }\\r\\n              );\\r\\n\\r\\n        }\\r\\n        else if(sort_recent){\\r\\n            $.ajax("\', escape=False)\nresponse.write(URL(\'default\', \'load_posts_recent\', user_signature=True, args=post_category))\nresponse.write(\'",\\r\\n                      {\\r\\n                        method: \\\'POST\\\',\\r\\n                        success: function (data) {\\r\\n                            MAIN.set(\\\'post_list\\\', data[\\\'post_list\\\']);\\r\\n                            MAIN.set(\\\'star_dict\\\', data[\\\'star_dict\\\']);\\r\\n                            MAIN.set(\\\'anti_star_dict\\\', data[\\\'anti_star_dict\\\']);\\r\\n                            MAIN.set(\\\'loading\\\', false);\\r\\n                        }\\r\\n                      }\\r\\n              );\\r\\n        }\\r\\n  }\\r\\n\\r\\n  setInterval(periodic_load, 10000);\\r\\n\\r\\n});\\r\\n</script>\\r\\n\\r\\n</body>\\r\\n\\r\\n\\r\\n\\r\\n\\r\\n\\r\\n\', escape=False)\nresponse.write(\'\\r\\n        \', escape=False)\nresponse.write(\'\\r\\n      </div>\\r\\n    </div>\\r\\n\\r\\n\\r\\n    <!-- Classie - class helper functions by @desandro https://github.com/desandro/classie -->\\r\\n\\t\\t<script src="\', escape=False)\nresponse.write(URL(\'static\', \'slide_menu_js/classie.js\'))\nresponse.write(\'"></script>\\r\\n\\t\\t<script>\\r\\n\\t\\t\\tvar menuLeft = document.getElementById( \\\'cbp-spmenu-s1\\\' ),\\r\\n\\t\\t\\t\\tshowLeft = document.getElementById( \\\'showLeft\\\' ),\\r\\n                hideLeft = document.getElementById( \\\'hideLeft\\\' ),\\r\\n\\t\\t\\t\\tbody = document.body;\\r\\n\\r\\n            showLeft.onclick = function() {\\r\\n                showLeft.style.opacity = 0;\\r\\n\\t\\t\\t\\tclassie.toggle( body, \\\'cbp-spmenu-push-toright\\\' );\\r\\n\\t\\t\\t\\tclassie.toggle( menuLeft, \\\'cbp-spmenu-open\\\' );\\r\\n\\t\\t\\t};\\r\\n\\r\\n            hideLeft.onclick = function() {\\r\\n                showLeft.style.opacity = 100;\\r\\n                classie.toggle( body, \\\'cbp-spmenu-push-toright\\\' );\\r\\n\\t\\t\\t\\tclassie.toggle( menuLeft, \\\'cbp-spmenu-open\\\' );\\r\\n\\t\\t\\t};\\r\\n\\t\\t</script>\\r\\n\\r\\n\\r\\n    <!-- The javascript =============================== -->\\r\\n    <script src="\', escape=False)\nresponse.write(URL(\'static\',\'js/bootstrap.min.js\'))\nresponse.write(\'"></script>\\r\\n    <script src="\', escape=False)\nresponse.write(URL(\'static\',\'js/web2py-bootstrap3.js\'))\nresponse.write(\'"></script>\\r\\n    <script src="\', escape=False)\nresponse.write(URL(\'static\', \'js/ractive.min.js\'))\nresponse.write(\'"></script>\\r\\n\\r\\n    <!--maps-->\\r\\n    <script src="https://maps.googleapis.com/maps/api/js"></script>\\r\\n\\r\\n\\r\\n\\r\\n\\r\\n    \', escape=False)\nresponse.write(\'\\r\\n    \', escape=False)\nif response.google_analytics_id:\n    response.write(\'\\r\\n    <!-- Analytics ==================================== -->\\r\\n    <script src="\', escape=False)\n    response.write(URL(\'static\',\'js/analytics.min.js\'))\n    response.write(\'"></script>\\r\\n    <script type="text/javascript">\\r\\n      analytics.initialize({\\r\\n      \\\'Google Analytics\\\':{trackingId:\\\'\', escape=False)\n    response.write(response.google_analytics_id)\n    response.write("\'}\\r\\n      });\\r\\n    </script>\\r\\n    ", escape=False)\n    pass\nresponse.write(\'\\r\\n    <!-- Share ============================y============ -->\\r\\n    <script src="\', escape=False)\nresponse.write(URL(\'static\',\'js/share.js\',vars=dict(static=URL(\'static\',\'images\'))))\nresponse.write(\'"></script>\\r\\n  </body>\\r\\n</html>\\r\\n\', escape=False)'
p7
sS'snapshot'
p8
(dp9
S'exception'
p10
(dp11
S'__hash__'
p12
S"<method-wrapper '__hash__' of exceptions.KeyError object>"
p13
sS'__setattr__'
p14
S"<method-wrapper '__setattr__' of exceptions.KeyError object>"
p15
sS'__reduce_ex__'
p16
S'<built-in method __reduce_ex__ of exceptions.KeyError object>'
p17
sS'__getslice__'
p18
S"<method-wrapper '__getslice__' of exceptions.KeyError object>"
p19
sS'__getitem__'
p20
S"<method-wrapper '__getitem__' of exceptions.KeyError object>"
p21
sS'__setstate__'
p22
S'<built-in method __setstate__ of exceptions.KeyError object>'
p23
sS'__reduce__'
p24
S'<built-in method __reduce__ of exceptions.KeyError object>'
p25
sS'__str__'
p26
S"<method-wrapper '__str__' of exceptions.KeyError object>"
p27
sS'__format__'
p28
S'<built-in method __format__ of exceptions.KeyError object>'
p29
sS'__getattribute__'
p30
S"<method-wrapper '__getattribute__' of exceptions.KeyError object>"
p31
sS'__class__'
p32
S"<type 'exceptions.KeyError'>"
p33
sS'__unicode__'
p34
S'<built-in method __unicode__ of exceptions.KeyError object>'
p35
sS'__delattr__'
p36
S"<method-wrapper '__delattr__' of exceptions.KeyError object>"
p37
sS'__subclasshook__'
p38
S'<built-in method __subclasshook__ of type object>'
p39
sS'__repr__'
p40
S"<method-wrapper '__repr__' of exceptions.KeyError object>"
p41
sS'__dict__'
p42
S'{}'
p43
sS'args'
p44
S'(123L,)'
p45
sS'__sizeof__'
p46
S'<built-in method __sizeof__ of exceptions.KeyError object>'
p47
sS'__doc__'
p48
S"'Mapping key not found.'"
p49
sS'__init__'
p50
S"<method-wrapper '__init__' of exceptions.KeyError object>"
p51
sS'__new__'
p52
S'<built-in method __new__ of type object>'
p53
ssS'evalue'
p54
S'123L'
p55
sS'request'
p56
cgluon.html
XML_unpickle
p57
(S'sV`\x00\x00<div><table><tr><td style="font-weight:bold;vertical-align:top;">ajax</td><td style="vertical-align:top;">:</td><td><div>False</div></td></tr><tr><td style="font-weight:bold;vertical-align:top;">application</td><td style="vertical-align:top;">:</td><td><div>cmps183_project</div></td></tr><tr><td style="font-weight:bold;vertical-align:top;">args</td><td style="vertical-align:top;">:</td><td><div><table><tr><td><div>art</div></td></tr></table></div></td></tr><tr><td style="font-weight:bold;vertical-align:top;">cid</td><td style="vertical-align:top;">:</td><td><div>None</div></td></tr><tr><td style="font-weight:bold;vertical-align:top;">client</td><td style="vertical-align:top;">:</td><td><div>127.0.0.1</div></td></tr><tr><td style="font-weight:bold;vertical-align:top;">controller</td><td style="vertical-align:top;">:</td><td><div>default</div></td></tr><tr><td style="font-weight:bold;vertical-align:top;">cookies</td><td style="vertical-align:top;">:</td><td><div><table><tr><td style="font-weight:bold;vertical-align:top;">session_id_admin</td><td style="vertical-align:top;">:</td><td><div>127.0.0.1-9acf578c-4f85-4176-b753-d205f1bd8f99<table><tr><td style="font-weight:bold;vertical-align:top;">comment</td><td style="vertical-align:top;">:</td><td><div></div></td></tr><tr><td style="font-weight:bold;vertical-align:top;">domain</td><td style="vertical-align:top;">:</td><td><div></div></td></tr><tr><td style="font-weight:bold;vertical-align:top;">expires</td><td style="vertical-align:top;">:</td><td><div></div></td></tr><tr><td style="font-weight:bold;vertical-align:top;">httponly</td><td style="vertical-align:top;">:</td><td><div></div></td></tr><tr><td style="font-weight:bold;vertical-align:top;">max-age</td><td style="vertical-align:top;">:</td><td><div></div></td></tr><tr><td style="font-weight:bold;vertical-align:top;">path</td><td style="vertical-align:top;">:</td><td><div></div></td></tr><tr><td style="font-weight:bold;vertical-align:top;">secure</td><td style="vertical-align:top;">:</td><td><div></div></td></tr><tr><td style="font-weight:bold;vertical-align:top;">version</td><td style="vertical-align:top;">:</td><td><div></div></td></tr></table></div></td></tr><tr><td style="font-weight:bold;vertical-align:top;">session_id_cmps183_project</td><td style="vertical-align:top;">:</td><td><div>127.0.0.1-63e51b1c-0274-400a-832d-3cd075b6a046<table><tr><td style="font-weight:bold;vertical-align:top;">comment</td><td style="vertical-align:top;">:</td><td><div></div></td></tr><tr><td style="font-weight:bold;vertical-align:top;">domain</td><td style="vertical-align:top;">:</td><td><div></div></td></tr><tr><td style="font-weight:bold;vertical-align:top;">expires</td><td style="vertical-align:top;">:</td><td><div></div></td></tr><tr><td style="font-weight:bold;vertical-align:top;">httponly</td><td style="vertical-align:top;">:</td><td><div></div></td></tr><tr><td style="font-weight:bold;vertical-align:top;">max-age</td><td style="vertical-align:top;">:</td><td><div></div></td></tr><tr><td style="font-weight:bold;vertical-align:top;">path</td><td style="vertical-align:top;">:</td><td><div></div></td></tr><tr><td style="font-weight:bold;vertical-align:top;">secure</td><td style="vertical-align:top;">:</td><td><div></div></td></tr><tr><td style="font-weight:bold;vertical-align:top;">version</td><td style="vertical-align:top;">:</td><td><div></div></td></tr></table></div></td></tr><tr><td style="font-weight:bold;vertical-align:top;">session_id_welcome</td><td style="vertical-align:top;">:</td><td><div>127.0.0.1-f14ccfaf-4ec2-4b71-bfac-1182c763b657<table><tr><td style="font-weight:bold;vertical-align:top;">comment</td><td style="vertical-align:top;">:</td><td><div></div></td></tr><tr><td style="font-weight:bold;vertical-align:top;">domain</td><td style="vertical-align:top;">:</td><td><div></div></td></tr><tr><td style="font-weight:bold;vertical-align:top;">expires</td><td style="vertical-align:top;">:</td><td><div></div></td></tr><tr><td style="font-weight:bold;vertical-align:top;">httponly</td><td style="vertical-align:top;">:</td><td><div></div></td></tr><tr><td style="font-weight:bold;vertical-align:top;">max-age</td><td style="vertical-align:top;">:</td><td><div></div></td></tr><tr><td style="font-weight:bold;vertical-align:top;">path</td><td style="vertical-align:top;">:</td><td><div></div></td></tr><tr><td style="font-weight:bold;vertical-align:top;">secure</td><td style="vertical-align:top;">:</td><td><div></div></td></tr><tr><td style="font-weight:bold;vertical-align:top;">version</td><td style="vertical-align:top;">:</td><td><div></div></td></tr></table></div></td></tr></table></div></td></tr><tr><td style="font-weight:bold;vertical-align:top;">env</td><td style="vertical-align:top;">:</td><td><div><table><tr><td style="font-weight:bold;vertical-align:top;">HTTP_ACCEPT</td><td style="vertical-align:top;">:</td><td><div>text/html,application/xhtml+xml,application/xml;q=0.9,image/webp,*/*;q=0.8</div></td></tr><tr><td style="font-weight:bold;vertical-align:top;">HTTP_ACCEPT_ENCODING</td><td style="vertical-align:top;">:</td><td><div>gzip, deflate, sdch</div></td></tr><tr><td style="font-weight:bold;vertical-align:top;">HTTP_ACCEPT_LANGUAGE</td><td style="vertical-align:top;">:</td><td><div>en-US,en;q=0.8</div></td></tr><tr><td style="font-weight:bold;vertical-align:top;">HTTP_CONNECTION</td><td style="vertical-align:top;">:</td><td><div>keep-alive</div></td></tr><tr><td style="font-weight:bold;vertical-align:top;">HTTP_COOKIE</td><td style="vertical-align:top;">:</td><td><div>session_id_welcome=127.0.0.1-f14ccfaf-4ec2-4b71-bfac-1182c763b657; session_id_admin=127.0.0.1-9acf578c-4f85-4176-b753-d205f1bd8f99; session_id_cmps183_project=127.0.0.1-63e51b1c-0274-400a-832d-3cd075b6a046</div></td></tr><tr><td style="font-weight:bold;vertical-align:top;">HTTP_HOST</td><td style="vertical-align:top;">:</td><td><div>127.0.0.1:8800</div></td></tr><tr><td style="font-weight:bold;vertical-align:top;">HTTP_REFERER</td><td style="vertical-align:top;">:</td><td><div>http://127.0.0.1:8800/cmps183_project/default/show_boards</div></td></tr><tr><td style="font-weight:bold;vertical-align:top;">HTTP_UPGRADE_INSECURE_REQUESTS</td><td style="vertical-align:top;">:</td><td><div>1</div></td></tr><tr><td style="font-weight:bold;vertical-align:top;">HTTP_USER_AGENT</td><td style="vertical-align:top;">:</td><td><div>Mozilla/5.0 (Windows NT 10.0; WOW64) AppleWebKit/537.36 (KHTML, like Gecko) Chrome/47.0.2526.73 Safari/537.36</div></td></tr><tr><td style="font-weight:bold;vertical-align:top;">PATH_INFO</td><td style="vertical-align:top;">:</td><td><div>/cmps183_project/default/show_posts/art</div></td></tr><tr><td style="font-weight:bold;vertical-align:top;">QUERY_STRING</td><td style="vertical-align:top;">:</td><td><div></div></td></tr><tr><td style="font-weight:bold;vertical-align:top;">REMOTE_ADDR</td><td style="vertical-align:top;">:</td><td><div>127.0.0.1</div></td></tr><tr><td style="font-weight:bold;vertical-align:top;">REMOTE_PORT</td><td style="vertical-align:top;">:</td><td><div>55725</div></td></tr><tr><td style="font-weight:bold;vertical-align:top;">REQUEST_METHOD</td><td style="vertical-align:top;">:</td><td><div>GET</div></td></tr><tr><td style="font-weight:bold;vertical-align:top;">SCRIPT_NAME</td><td style="vertical-align:top;">:</td><td><div></div></td></tr><tr><td style="font-weight:bold;vertical-align:top;">SERVER_NAME</td><td style="vertical-align:top;">:</td><td><div>TaohsLaptop</div></td></tr><tr><td style="font-weight:bold;vertical-align:top;">SERVER_PORT</td><td style="vertical-align:top;">:</td><td><div>8800</div></td></tr><tr><td style="font-weight:bold;vertical-align:top;">SERVER_PROTOCOL</td><td style="vertical-align:top;">:</td><td><div>HTTP/1.1</div></td></tr><tr><td style="font-weight:bold;vertical-align:top;">SERVER_SOFTWARE</td><td style="vertical-align:top;">:</td><td><div>Rocket 1.2.6</div></td></tr><tr><td style="font-weight:bold;vertical-align:top;">app_folders</td><td style="vertical-align:top;">:</td><td><div>set([&#x27;C:\\\\Users\\\\Taoh\\\\Desktop\\\\git\\\\Project-cmps183\\\\web2py\\\\applications\\\\cmps183_project\\\\&#x27;, &#x27;C:\\\\Users\\\\Taoh\\\\Desktop\\\\git\\\\Project-cmps183\\\\web2py\\\\applications\\\\welcome\\\\&#x27;, &#x27;C:\\\\Users\\\\Taoh\\\\Desktop\\\\git\\\\Project-cmps183\\\\web2py\\\\applications\\\\admin\\\\&#x27;])</div></td></tr><tr><td style="font-weight:bold;vertical-align:top;">applications_parent</td><td style="vertical-align:top;">:</td><td><div>C:\\Users\\Taoh\\Desktop\\git\\Project-cmps183\\web2py</div></td></tr><tr><td style="font-weight:bold;vertical-align:top;">cmd_args</td><td style="vertical-align:top;">:</td><td><div><table></table></div></td></tr><tr><td style="font-weight:bold;vertical-align:top;">cmd_options</td><td style="vertical-align:top;">:</td><td><div>&lt;Values at 0x3a2f348: {&#x27;verbose&#x27;: False, &#x27;ip&#x27;: &#x27;127.0.0.1&#x27;, &#x27;debuglevel&#x27;: 30, &#x27;with_scheduler&#x27;: False, &#x27;ips&#x27;: [], &#x27;shutdown_timeout&#x27;: 5, &#x27;taskbar&#x27;: False, &#x27;with_coverage&#x27;: False, &#x27;scheduler_groups&#x27;: None, &#x27;port&#x27;: 8800, &#x27;maxthreads&#x27;: None, &#x27;softcron&#x27;: False, &#x27;server_name&#x27;: &#x27;TaohsLaptop&#x27;, &#x27;bpython&#x27;: False, &#x27;nogui&#x27;: False, &#x27;pid_filename&#x27;: &#x27;httpserver.pid&#x27;, &#x27;print_errors&#x27;: True, &#x27;extcron&#x27;: False, &#x27;runcron&#x27;: False, &#x27;run_system_tests&#x27;: False, &#x27;test&#x27;: None, &#x27;folder&#x27;: &#x27;C:\\\\Users\\\\Taoh\\\\Desktop\\\\git\\\\Project-cmps183\\\\web2py&#x27;, &#x27;config&#x27;: &#x27;&#x27;, &#x27;minthreads&#x27;: None, &#x27;shell&#x27;: None, &#x27;run&#x27;: &#x27;&#x27;, &#x27;log_filename&#x27;: &#x27;httpserver.log&#x27;, &#x27;profiler_dir&#x27;: None, &#x27;args&#x27;: [&#x27;&#x27;], &#x27;socket_timeout&#x27;: 5, &#x27;ssl_ca_certificate&#x27;: None, &#x27;scheduler&#x27;: None, &#x27;interfaces&#x27;: None, &#x27;ssl_private_key&#x27;: &#x27;&#x27;, &#x27;gae&#x27;: None, &#x27;password&#x27;: &#x27;pass&#x27;, &#x27;request_queue_size&#x27;: 5, &#x27;ssl_certificate&#x27;: &#x27;&#x27;, &#x27;cronjob&#x27;: False, &#x27;numthreads&#x27;: None, &#x27;quiet&#x27;: False, &#x27;import_models&#x27;: False, &#x27;timeout&#x27;: 10, &#x27;plain&#x27;: False, &#x27;nobanner&#x27;: False}&gt;</div></td></tr><tr><td style="font-weight:bold;vertical-align:top;">db_sessions</td><td style="vertical-align:top;">:</td><td><div>set([])</div></td></tr><tr><td style="font-weight:bold;vertical-align:top;">debugging</td><td style="vertical-align:top;">:</td><td><div>False</div></td></tr><tr><td style="font-weight:bold;vertical-align:top;">gluon_parent</td><td style="vertical-align:top;">:</td><td><div>C:\\Users\\Taoh\\Desktop\\git\\Project-cmps183\\web2py</div></td></tr><tr><td style="font-weight:bold;vertical-align:top;">http_accept</td><td style="vertical-align:top;">:</td><td><div>text/html,application/xhtml+xml,application/xml;q=0.9,image/webp,*/*;q=0.8</div></td></tr><tr><td style="font-weight:bold;vertical-align:top;">http_accept_encoding</td><td style="vertical-align:top;">:</td><td><div>gzip, deflate, sdch</div></td></tr><tr><td style="font-weight:bold;vertical-align:top;">http_accept_language</td><td style="vertical-align:top;">:</td><td><div>en-US,en;q=0.8</div></td></tr><tr><td style="font-weight:bold;vertical-align:top;">http_connection</td><td style="vertical-align:top;">:</td><td><div>keep-alive</div></td></tr><tr><td style="font-weight:bold;vertical-align:top;">http_cookie</td><td style="vertical-align:top;">:</td><td><div>session_id_welcome=127.0.0.1-f14ccfaf-4ec2-4b71-bfac-1182c763b657; session_id_admin=127.0.0.1-9acf578c-4f85-4176-b753-d205f1bd8f99; session_id_cmps183_project=127.0.0.1-63e51b1c-0274-400a-832d-3cd075b6a046</div></td></tr><tr><td style="font-weight:bold;vertical-align:top;">http_host</td><td style="vertical-align:top;">:</td><td><div>127.0.0.1:8800</div></td></tr><tr><td style="font-weight:bold;vertical-align:top;">http_referer</td><td style="vertical-align:top;">:</td><td><div>http://127.0.0.1:8800/cmps183_project/default/show_boards</div></td></tr><tr><td style="font-weight:bold;vertical-align:top;">http_upgrade_insecure_requests</td><td style="vertical-align:top;">:</td><td><div>1</div></td></tr><tr><td style="font-weight:bold;vertical-align:top;">http_user_agent</td><td style="vertical-align:top;">:</td><td><div>Mozilla/5.0 (Windows NT 10.0; WOW64) AppleWebKit/537.36 (KHTML, like Gecko) Chrome/47.0.2526.73 Safari/537.36</div></td></tr><tr><td style="font-weight:bold;vertical-align:top;">is_jython</td><td style="vertical-align:top;">:</td><td><div>False</div></td></tr><tr><td style="font-weight:bold;vertical-align:top;">is_pypy</td><td style="vertical-align:top;">:</td><td><div>False</div></td></tr><tr><td style="font-weight:bold;vertical-align:top;">is_source</td><td style="vertical-align:top;">:</td><td><div>True</div></td></tr><tr><td style="font-weight:bold;vertical-align:top;">local_hosts</td><td style="vertical-align:top;">:</td><td><div><table><tr><td><div>2002:a9e9:fd84::a9e9:fd84</div></td></tr><tr><td><div>fe80::d74:686e:12a4:ad3f%9</div></td></tr><tr><td><div>TaohsLaptop</div></td></tr><tr><td><div>fe80::c66:1b98:5616:27b%15</div></td></tr><tr><td><div>::ffff:127.0.0.1</div></td></tr><tr><td><div>::1</div></td></tr><tr><td><div>fe80::200:5efe:169.233.253.132%16</div></td></tr><tr><td><div>TaohsLaptop.ucsc.edu</div></td></tr><tr><td><div>127.0.0.1</div></td></tr><tr><td><div>169.233.253.132</div></td></tr></table></div></td></tr><tr><td style="font-weight:bold;vertical-align:top;">path_info</td><td style="vertical-align:top;">:</td><td><div>/cmps183_project/default/show_posts/art</div></td></tr><tr><td style="font-weight:bold;vertical-align:top;">query_string</td><td style="vertical-align:top;">:</td><td><div></div></td></tr><tr><td style="font-weight:bold;vertical-align:top;">remote_addr</td><td style="vertical-align:top;">:</td><td><div>127.0.0.1</div></td></tr><tr><td style="font-weight:bold;vertical-align:top;">remote_port</td><td style="vertical-align:top;">:</td><td><div>55725</div></td></tr><tr><td style="font-weight:bold;vertical-align:top;">request_method</td><td style="vertical-align:top;">:</td><td><div>GET</div></td></tr><tr><td style="font-weight:bold;vertical-align:top;">request_uri</td><td style="vertical-align:top;">:</td><td><div>/cmps183_project/default/show_posts/art</div></td></tr><tr><td style="font-weight:bold;vertical-align:top;">script_name</td><td style="vertical-align:top;">:</td><td><div></div></td></tr><tr><td style="font-weight:bold;vertical-align:top;">server_name</td><td style="vertical-align:top;">:</td><td><div>TaohsLaptop</div></td></tr><tr><td style="font-weight:bold;vertical-align:top;">server_port</td><td style="vertical-align:top;">:</td><td><div>8800</div></td></tr><tr><td style="font-weight:bold;vertical-align:top;">server_protocol</td><td style="vertical-align:top;">:</td><td><div>HTTP/1.1</div></td></tr><tr><td style="font-weight:bold;vertical-align:top;">server_software</td><td style="vertical-align:top;">:</td><td><div>Rocket 1.2.6</div></td></tr><tr><td style="font-weight:bold;vertical-align:top;">web2py_path</td><td style="vertical-align:top;">:</td><td><div>C:\\Users\\Taoh\\Desktop\\git\\Project-cmps183\\web2py</div></td></tr><tr><td style="font-weight:bold;vertical-align:top;">web2py_version</td><td style="vertical-align:top;">:</td><td><div>2.12.3-stable+timestamp.2015.08.19.00.18.03</div></td></tr><tr><td style="font-weight:bold;vertical-align:top;">wsgi.errors</td><td style="vertical-align:top;">:</td><td><div>&lt;open file &#x27;&lt;stderr&gt;&#x27;, mode &#x27;w&#x27; at 0x00000000020CB150&gt;</div></td></tr><tr><td style="font-weight:bold;vertical-align:top;">wsgi.file_wrapper</td><td style="vertical-align:top;">:</td><td><div>&lt;class wsgiref.util.FileWrapper at 0x00000000039B2CA8&gt;</div></td></tr><tr><td style="font-weight:bold;vertical-align:top;">wsgi.input</td><td style="vertical-align:top;">:</td><td><div>&lt;socket._fileobject object at 0x0000000003D12E58&gt;</div></td></tr><tr><td style="font-weight:bold;vertical-align:top;">wsgi.multiprocess</td><td style="vertical-align:top;">:</td><td><div>False</div></td></tr><tr><td style="font-weight:bold;vertical-align:top;">wsgi.multithread</td><td style="vertical-align:top;">:</td><td><div>True</div></td></tr><tr><td style="font-weight:bold;vertical-align:top;">wsgi.run_once</td><td style="vertical-align:top;">:</td><td><div>False</div></td></tr><tr><td style="font-weight:bold;vertical-align:top;">wsgi.url_scheme</td><td style="vertical-align:top;">:</td><td><div>http</div></td></tr><tr><td style="font-weight:bold;vertical-align:top;">wsgi.version</td><td style="vertical-align:top;">:</td><td><div><table><tr><td><div>1</div></td></tr><tr><td><div>0</div></td></tr></table></div></td></tr><tr><td style="font-weight:bold;vertical-align:top;">wsgi_errors</td><td style="vertical-align:top;">:</td><td><div>&lt;open file &#x27;&lt;stderr&gt;&#x27;, mode &#x27;w&#x27; at 0x00000000020CB150&gt;</div></td></tr><tr><td style="font-weight:bold;vertical-align:top;">wsgi_file_wrapper</td><td style="vertical-align:top;">:</td><td><div>&lt;class wsgiref.util.FileWrapper at 0x00000000039B2CA8&gt;</div></td></tr><tr><td style="font-weight:bold;vertical-align:top;">wsgi_input</td><td style="vertical-align:top;">:</td><td><div>&lt;socket._fileobject object at 0x0000000003D12E58&gt;</div></td></tr><tr><td style="font-weight:bold;vertical-align:top;">wsgi_multiprocess</td><td style="vertical-align:top;">:</td><td><div>False</div></td></tr><tr><td style="font-weight:bold;vertical-align:top;">wsgi_multithread</td><td style="vertical-align:top;">:</td><td><div>True</div></td></tr><tr><td style="font-weight:bold;vertical-align:top;">wsgi_run_once</td><td style="vertical-align:top;">:</td><td><div>False</div></td></tr><tr><td style="font-weight:bold;vertical-align:top;">wsgi_url_scheme</td><td style="vertical-align:top;">:</td><td><div>http</div></td></tr><tr><td style="font-weight:bold;vertical-align:top;">wsgi_version</td><td style="vertical-align:top;">:</td><td><div><table><tr><td><div>1</div></td></tr><tr><td><div>0</div></td></tr></table></div></td></tr></table></div></td></tr><tr><td style="font-weight:bold;vertical-align:top;">extension</td><td style="vertical-align:top;">:</td><td><div>html</div></td></tr><tr><td style="font-weight:bold;vertical-align:top;">folder</td><td style="vertical-align:top;">:</td><td><div>C:\\Users\\Taoh\\Desktop\\git\\Project-cmps183\\web2py\\applications\\cmps183_project\\</div></td></tr><tr><td style="font-weight:bold;vertical-align:top;">function</td><td style="vertical-align:top;">:</td><td><div>show_posts</div></td></tr><tr><td style="font-weight:bold;vertical-align:top;">global_settings</td><td style="vertical-align:top;">:</td><td><div><table><tr><td style="font-weight:bold;vertical-align:top;">app_folders</td><td style="vertical-align:top;">:</td><td><div>set([&#x27;C:\\\\Users\\\\Taoh\\\\Desktop\\\\git\\\\Project-cmps183\\\\web2py\\\\applications\\\\cmps183_project\\\\&#x27;, &#x27;C:\\\\Users\\\\Taoh\\\\Desktop\\\\git\\\\Project-cmps183\\\\web2py\\\\applications\\\\welcome\\\\&#x27;, &#x27;C:\\\\Users\\\\Taoh\\\\Desktop\\\\git\\\\Project-cmps183\\\\web2py\\\\applications\\\\admin\\\\&#x27;])</div></td></tr><tr><td style="font-weight:bold;vertical-align:top;">applications_parent</td><td style="vertical-align:top;">:</td><td><div>C:\\Users\\Taoh\\Desktop\\git\\Project-cmps183\\web2py</div></td></tr><tr><td style="font-weight:bold;vertical-align:top;">cmd_args</td><td style="vertical-align:top;">:</td><td><div><table></table></div></td></tr><tr><td style="font-weight:bold;vertical-align:top;">cmd_options</td><td style="vertical-align:top;">:</td><td><div>&lt;Values at 0x3a2f348: {&#x27;verbose&#x27;: False, &#x27;ip&#x27;: &#x27;127.0.0.1&#x27;, &#x27;debuglevel&#x27;: 30, &#x27;with_scheduler&#x27;: False, &#x27;ips&#x27;: [], &#x27;shutdown_timeout&#x27;: 5, &#x27;taskbar&#x27;: False, &#x27;with_coverage&#x27;: False, &#x27;scheduler_groups&#x27;: None, &#x27;port&#x27;: 8800, &#x27;maxthreads&#x27;: None, &#x27;softcron&#x27;: False, &#x27;server_name&#x27;: &#x27;TaohsLaptop&#x27;, &#x27;bpython&#x27;: False, &#x27;nogui&#x27;: False, &#x27;pid_filename&#x27;: &#x27;httpserver.pid&#x27;, &#x27;print_errors&#x27;: True, &#x27;extcron&#x27;: False, &#x27;runcron&#x27;: False, &#x27;run_system_tests&#x27;: False, &#x27;test&#x27;: None, &#x27;folder&#x27;: &#x27;C:\\\\Users\\\\Taoh\\\\Desktop\\\\git\\\\Project-cmps183\\\\web2py&#x27;, &#x27;config&#x27;: &#x27;&#x27;, &#x27;minthreads&#x27;: None, &#x27;shell&#x27;: None, &#x27;run&#x27;: &#x27;&#x27;, &#x27;log_filename&#x27;: &#x27;httpserver.log&#x27;, &#x27;profiler_dir&#x27;: None, &#x27;args&#x27;: [&#x27;&#x27;], &#x27;socket_timeout&#x27;: 5, &#x27;ssl_ca_certificate&#x27;: None, &#x27;scheduler&#x27;: None, &#x27;interfaces&#x27;: None, &#x27;ssl_private_key&#x27;: &#x27;&#x27;, &#x27;gae&#x27;: None, &#x27;password&#x27;: &#x27;pass&#x27;, &#x27;request_queue_size&#x27;: 5, &#x27;ssl_certificate&#x27;: &#x27;&#x27;, &#x27;cronjob&#x27;: False, &#x27;numthreads&#x27;: None, &#x27;quiet&#x27;: False, &#x27;import_models&#x27;: False, &#x27;timeout&#x27;: 10, &#x27;plain&#x27;: False, &#x27;nobanner&#x27;: False}&gt;</div></td></tr><tr><td style="font-weight:bold;vertical-align:top;">db_sessions</td><td style="vertical-align:top;">:</td><td><div>set([])</div></td></tr><tr><td style="font-weight:bold;vertical-align:top;">debugging</td><td style="vertical-align:top;">:</td><td><div>False</div></td></tr><tr><td style="font-weight:bold;vertical-align:top;">gluon_parent</td><td style="vertical-align:top;">:</td><td><div>C:\\Users\\Taoh\\Desktop\\git\\Project-cmps183\\web2py</div></td></tr><tr><td style="font-weight:bold;vertical-align:top;">is_jython</td><td style="vertical-align:top;">:</td><td><div>False</div></td></tr><tr><td style="font-weight:bold;vertical-align:top;">is_pypy</td><td style="vertical-align:top;">:</td><td><div>False</div></td></tr><tr><td style="font-weight:bold;vertical-align:top;">is_source</td><td style="vertical-align:top;">:</td><td><div>True</div></td></tr><tr><td style="font-weight:bold;vertical-align:top;">local_hosts</td><td style="vertical-align:top;">:</td><td><div><table><tr><td><div>2002:a9e9:fd84::a9e9:fd84</div></td></tr><tr><td><div>fe80::d74:686e:12a4:ad3f%9</div></td></tr><tr><td><div>TaohsLaptop</div></td></tr><tr><td><div>fe80::c66:1b98:5616:27b%15</div></td></tr><tr><td><div>::ffff:127.0.0.1</div></td></tr><tr><td><div>::1</div></td></tr><tr><td><div>fe80::200:5efe:169.233.253.132%16</div></td></tr><tr><td><div>TaohsLaptop.ucsc.edu</div></td></tr><tr><td><div>127.0.0.1</div></td></tr><tr><td><div>169.233.253.132</div></td></tr></table></div></td></tr><tr><td style="font-weight:bold;vertical-align:top;">web2py_version</td><td style="vertical-align:top;">:</td><td><div>2.12.3-stable+timestamp.2015.08.19.00.18.03</div></td></tr></table></div></td></tr><tr><td style="font-weight:bold;vertical-align:top;">is_https</td><td style="vertical-align:top;">:</td><td><div>False</div></td></tr><tr><td style="font-weight:bold;vertical-align:top;">is_local</td><td style="vertical-align:top;">:</td><td><div>True</div></td></tr><tr><td style="font-weight:bold;vertical-align:top;">is_restful</td><td style="vertical-align:top;">:</td><td><div>False</div></td></tr><tr><td style="font-weight:bold;vertical-align:top;">is_sheduler</td><td style="vertical-align:top;">:</td><td><div>None</div></td></tr><tr><td style="font-weight:bold;vertical-align:top;">is_shell</td><td style="vertical-align:top;">:</td><td><div>None</div></td></tr><tr><td style="font-weight:bold;vertical-align:top;">now</td><td style="vertical-align:top;">:</td><td><div>datetime.datetime(2015, 12, 10, 0, 24, 42, 541000)</div></td></tr><tr><td style="font-weight:bold;vertical-align:top;">raw_args</td><td style="vertical-align:top;">:</td><td><div>art</div></td></tr><tr><td style="font-weight:bold;vertical-align:top;">raw_extension</td><td style="vertical-align:top;">:</td><td><div>None</div></td></tr><tr><td style="font-weight:bold;vertical-align:top;">url</td><td style="vertical-align:top;">:</td><td><div>/cmps183_project/default/show_posts/art</div></td></tr><tr><td style="font-weight:bold;vertical-align:top;">utcnow</td><td style="vertical-align:top;">:</td><td><div>datetime.datetime(2015, 12, 10, 8, 24, 42, 541000)</div></td></tr><tr><td style="font-weight:bold;vertical-align:top;">wsgi</td><td style="vertical-align:top;">:</td><td><div>&lt;gluon.main.LazyWSGI object at 0x00000000044E02B0&gt;</div></td></tr></table></div>'
tRp58
sS'frames'
p59
(lp60
(dp61
S'file'
p62
S'C:\\Users\\Taoh\\Desktop\\git\\Project-cmps183\\web2py\\gluon\\restricted.py'
p63
sS'dump'
p64
(dp65
S'environment'
p66
S"{'A': <class 'gluon.html.A'>, 'ANY_OF': <class 'gluon.validators.ANY_OF'>, 'ASSIGNJS': <function ASSIGNJS>, 'AppConfig': <function AppConfig>, 'Auth': <class 'gluon.tools.Auth'>, 'B': <class 'gluon.html.B'>, 'BEAUTIFY': <class 'gluon.html.BEAUTIFY'>, 'BODY': <class 'gluon.html.BODY'>, 'BR': <class 'gluon.html.BR'>, 'BUTTON': <class 'gluon.html.BUTTON'>, ...}"
p67
sS'ccode'
p68
S'<code object <module> at 0000000003E5CA30, file ...3_project\\views\\default/show_posts.html", line 1>'
p69
ssS'lnum'
p70
I227
sS'lines'
p71
(dp72
I224
S'            ccode = code'
p73
sI225
S'        else:'
p74
sI226
S'            ccode = compile2(code, layer)'
p75
sI227
S'        exec ccode in environment'
p76
sI228
S'    except HTTP:'
p77
sI229
S'        raise'
p78
sI230
S'    except RestrictedError:'
p79
sI231
S'        # do not encapsulate (obfuscate) the original RestrictedError'
p80
sI222
S'    try:'
p81
sI223
S'        if isinstance(code, types.CodeType):'
p82
ssS'call'
p83
S'(code=r"response.write(\'<!DOCTYPE html>\\r\\n<!--[if (gt I...ript>\\r\\n  </body>\\r\\n</html>\\r\\n\', escape=False)", environment={\'A\': <class \'gluon.html.A\'>, \'ANY_OF\': <class \'gluon.validators.ANY_OF\'>, \'ASSIGNJS\': <function ASSIGNJS>, \'AppConfig\': <function AppConfig>, \'Auth\': <class \'gluon.tools.Auth\'>, \'B\': <class \'gluon.html.B\'>, \'BEAUTIFY\': <class \'gluon.html.BEAUTIFY\'>, \'BODY\': <class \'gluon.html.BODY\'>, \'BR\': <class \'gluon.html.BR\'>, \'BUTTON\': <class \'gluon.html.BUTTON\'>, ...}, layer=r\'C:\\Users\\Taoh\\Desktop\\git\\Project-cmps183\\web2py...ons\\cmps183_project\\views\\default/show_posts.html\')'
p84
sS'func'
p85
S'restricted'
p86
sa(dp87
g62
S'C:\\Users\\Taoh\\Desktop\\git\\Project-cmps183\\web2py\\applications\\cmps183_project\\views\\default\\show_posts.html'
p88
sg64
(dp89
S'div'
p90
S'undefined'
p91
ssg70
I101
sg71
(dp92
I96
S'response.write(\'">\\r\\n        \', escape=False)'
p93
sI97
S"response.write('\\r\\n        ', escape=False)"
p94
sI98
S'response.write(\'\\r\\n\\r\\n\\r\\n<div id="target"></div>\\r\\n\\r\\n<body class="cbp-spmenu-push">\\r\\n\\r\\n\', escape=False)'
p95
sI99
S'for post in post_list:'
p96
sI100
S'    response.write(\'\\r\\n\\r\\n<img src="\', escape=False)'
p97
sI101
S"    response.write(URL('default', 'download', args=images_dict[post.id]['up_file']))"
p98
sI102
S'    response.write(\'" />\\r\\n\\r\\n\', escape=False)'
p99
sI103
S'    pass'
p100
sI104
S'response.write(\'\\r\\n\\r\\n\\r\\n<script id="template" type="text/ractive">\\r\\n\\r\\n  <!--shows the sign in sign out buttons-->\\r\\n        <h1 class="post_header">Posts</h1>\\r\\n\\r\\n       <span>\\r\\n         \', escape=False)'
p101
sI105
S"response.write(A('Back', _class='btn btn-primary', _href=URL('default', 'show_boards', args=[])))"
p102
sI106
S"response.write('\\r\\n        </span>\\r\\n  ', escape=False)"
p103
sI107
S'if auth.user_id is not None:'
p104
sI108
S'    response.write(\'\\r\\n        <span style = "float:right">\\r\\n        \', escape=False)'
p105
sI109
S"    response.write(A('Create Post', _class='btn btn-success', _href=URL('default', 'add_posts', args=[post_category])))"
p106
sI110
S"    response.write('\\r\\n        </div>\\r\\n  ', escape=False)"
p107
sI111
S'    pass'
p108
sI92
S"response.write('\\r\\n        </span>\\r\\n    </div>\\r\\n    <!-- Masthead ===================================== -->\\r\\n    ', escape=False)"
p109
sI93
S"response.write('\\r\\n    ', escape=False)"
p110
sI94
S'response.write(\'\\r\\n    <!-- Main ========================================= -->\\r\\n    <!-- Begin page content -->\\r\\n    <div class="container-fluid main-container">\\r\\n      <div class="\', escape=False)'
p111
sI95
S'response.write(middle_column)'
p112
ssg83
S'()'
p113
sg85
S'<module>'
p114
sasS'pyver'
p115
S'Python 2.7.10: C:\\Python27\\python.exe (prefix: C:\\Python27)'
p116
sS'session'
p117
g57
(S's\x1a\x00\x00\x00<div><table></table></div>'
tRp118
sS'etype'
p119
S"<type 'exceptions.KeyError'>"
p120
sS'date'
p121
S'Thu Dec 10 00:24:42 2015'
p122
sS'response'
p123
g57
(S's\x15@\x00\x00<div><table><tr><td style="font-weight:bold;vertical-align:top;">body</td><td style="vertical-align:top;">:</td><td><div>&lt;cStringIO.StringO object at 0x00000000044E0420&gt;</div></td></tr><tr><td style="font-weight:bold;vertical-align:top;">cookies</td><td style="vertical-align:top;">:</td><td><div><table><tr><td style="font-weight:bold;vertical-align:top;">session_id_cmps183_project</td><td style="vertical-align:top;">:</td><td><div>127.0.0.1-0784f1b5-a44b-4917-bfdf-f003459b494d<table><tr><td style="font-weight:bold;vertical-align:top;">comment</td><td style="vertical-align:top;">:</td><td><div></div></td></tr><tr><td style="font-weight:bold;vertical-align:top;">domain</td><td style="vertical-align:top;">:</td><td><div></div></td></tr><tr><td style="font-weight:bold;vertical-align:top;">expires</td><td style="vertical-align:top;">:</td><td><div></div></td></tr><tr><td style="font-weight:bold;vertical-align:top;">httponly</td><td style="vertical-align:top;">:</td><td><div></div></td></tr><tr><td style="font-weight:bold;vertical-align:top;">max-age</td><td style="vertical-align:top;">:</td><td><div></div></td></tr><tr><td style="font-weight:bold;vertical-align:top;">path</td><td style="vertical-align:top;">:</td><td><div>/</div></td></tr><tr><td style="font-weight:bold;vertical-align:top;">secure</td><td style="vertical-align:top;">:</td><td><div></div></td></tr><tr><td style="font-weight:bold;vertical-align:top;">version</td><td style="vertical-align:top;">:</td><td><div></div></td></tr></table></div></td></tr></table></div></td></tr><tr><td style="font-weight:bold;vertical-align:top;">delimiters</td><td style="vertical-align:top;">:</td><td><div><table><tr><td><div>{{</div></td></tr><tr><td><div>}}</div></td></tr></table></div></td></tr><tr><td style="font-weight:bold;vertical-align:top;">files</td><td style="vertical-align:top;">:</td><td><div><table><tr><td><div>/cmps183_project/static/js/jquery.js</div></td></tr><tr><td><div>/cmps183_project/static/css/calendar.css</div></td></tr><tr><td><div>/cmps183_project/static/js/calendar.js</div></td></tr><tr><td><div>/cmps183_project/static/js/web2py.js</div></td></tr></table></div></td></tr><tr><td style="font-weight:bold;vertical-align:top;">flash</td><td style="vertical-align:top;">:</td><td><div></div></td></tr><tr><td style="font-weight:bold;vertical-align:top;">form_label_separator</td><td style="vertical-align:top;">:</td><td><div></div></td></tr><tr><td style="font-weight:bold;vertical-align:top;">formstyle</td><td style="vertical-align:top;">:</td><td><div>bootstrap3_inline</div></td></tr><tr><td style="font-weight:bold;vertical-align:top;">generic_patterns</td><td style="vertical-align:top;">:</td><td><div><table><tr><td><div>*</div></td></tr></table></div></td></tr><tr><td style="font-weight:bold;vertical-align:top;">google_analytics_id</td><td style="vertical-align:top;">:</td><td><div>None</div></td></tr><tr><td style="font-weight:bold;vertical-align:top;">headers</td><td style="vertical-align:top;">:</td><td><div><table><tr><td style="font-weight:bold;vertical-align:top;">X-Powered-By</td><td style="vertical-align:top;">:</td><td><div>web2py</div></td></tr></table></div></td></tr><tr><td style="font-weight:bold;vertical-align:top;">logo</td><td style="vertical-align:top;">:</td><td><div><a class="navbar-brand" href="http://www.web2py.com/" id="web2py-logo"><b>web<span>2</span>py</b>&trade;&nbsp;</a></div></td></tr><tr><td style="font-weight:bold;vertical-align:top;">menu</td><td style="vertical-align:top;">:</td><td><div><table><tr><td><div><table><tr><td><div>Home</div></td></tr><tr><td><div>False</div></td></tr><tr><td><div>/cmps183_project/default/index</div></td></tr><tr><td><div><table></table></div></td></tr></table></div></td></tr><tr><td><div><table><tr><td><div>My Sites</div></td></tr><tr><td><div>False</div></td></tr><tr><td><div>/admin/default/site</div></td></tr></table></div></td></tr><tr><td><div><table><tr><td><div>This App</div></td></tr><tr><td><div>False</div></td></tr><tr><td><div>#</div></td></tr><tr><td><div><table><tr><td><div><table><tr><td><div>Design</div></td></tr><tr><td><div>False</div></td></tr><tr><td><div>/admin/default/design/cmps183_project</div></td></tr></table></div></td></tr><tr><td><div><li class="divider"></li></div></td></tr><tr><td><div><table><tr><td><div>Controller</div></td></tr><tr><td><div>False</div></td></tr><tr><td><div>/admin/default/edit/cmps183_project/controllers/default.py</div></td></tr></table></div></td></tr><tr><td><div><table><tr><td><div>View</div></td></tr><tr><td><div>False</div></td></tr><tr><td><div>/admin/default/edit/cmps183_project/views/default/show_posts.html</div></td></tr></table></div></td></tr><tr><td><div><table><tr><td><div>DB Model</div></td></tr><tr><td><div>False</div></td></tr><tr><td><div>/admin/default/edit/cmps183_project/models/db.py</div></td></tr></table></div></td></tr><tr><td><div><table><tr><td><div>Menu Model</div></td></tr><tr><td><div>False</div></td></tr><tr><td><div>/admin/default/edit/cmps183_project/models/menu.py</div></td></tr></table></div></td></tr><tr><td><div><table><tr><td><div>Config.ini</div></td></tr><tr><td><div>False</div></td></tr><tr><td><div>/admin/default/edit/cmps183_project/private/appconfig.ini</div></td></tr></table></div></td></tr><tr><td><div><table><tr><td><div>Layout</div></td></tr><tr><td><div>False</div></td></tr><tr><td><div>/admin/default/edit/cmps183_project/views/layout.html</div></td></tr></table></div></td></tr><tr><td><div><table><tr><td><div>Stylesheet</div></td></tr><tr><td><div>False</div></td></tr><tr><td><div>/admin/default/edit/cmps183_project/static/css/web2py-bootstrap3.css</div></td></tr></table></div></td></tr><tr><td><div><table><tr><td><div>Database</div></td></tr><tr><td><div>False</div></td></tr><tr><td><div>/cmps183_project/appadmin/index</div></td></tr></table></div></td></tr><tr><td><div><table><tr><td><div>Errors</div></td></tr><tr><td><div>False</div></td></tr><tr><td><div>/admin/default/errors/cmps183_project</div></td></tr></table></div></td></tr><tr><td><div><table><tr><td><div>About</div></td></tr><tr><td><div>False</div></td></tr><tr><td><div>/admin/default/about/cmps183_project</div></td></tr></table></div></td></tr></table></div></td></tr></table></div></td></tr><tr><td><div><table><tr><td><div>web2py.com</div></td></tr><tr><td><div>False</div></td></tr><tr><td><div>#</div></td></tr><tr><td><div><table><tr><td><div><table><tr><td><div>Download</div></td></tr><tr><td><div>False</div></td></tr><tr><td><div>http://www.web2py.com/examples/default/download</div></td></tr></table></div></td></tr><tr><td><div><table><tr><td><div>Support</div></td></tr><tr><td><div>False</div></td></tr><tr><td><div>http://www.web2py.com/examples/default/support</div></td></tr></table></div></td></tr><tr><td><div><table><tr><td><div>Demo</div></td></tr><tr><td><div>False</div></td></tr><tr><td><div>http://web2py.com/demo_admin</div></td></tr></table></div></td></tr><tr><td><div><table><tr><td><div>Quick Examples</div></td></tr><tr><td><div>False</div></td></tr><tr><td><div>http://web2py.com/examples/default/examples</div></td></tr></table></div></td></tr><tr><td><div><table><tr><td><div>FAQ</div></td></tr><tr><td><div>False</div></td></tr><tr><td><div>http://web2py.com/AlterEgo</div></td></tr></table></div></td></tr><tr><td><div><table><tr><td><div>Videos</div></td></tr><tr><td><div>False</div></td></tr><tr><td><div>http://www.web2py.com/examples/default/videos/</div></td></tr></table></div></td></tr><tr><td><div><table><tr><td><div>Free Applications</div></td></tr><tr><td><div>False</div></td></tr><tr><td><div>http://web2py.com/appliances</div></td></tr></table></div></td></tr><tr><td><div><table><tr><td><div>Plugins</div></td></tr><tr><td><div>False</div></td></tr><tr><td><div>http://web2py.com/plugins</div></td></tr></table></div></td></tr><tr><td><div><table><tr><td><div>Recipes</div></td></tr><tr><td><div>False</div></td></tr><tr><td><div>http://web2pyslices.com/</div></td></tr></table></div></td></tr></table></div></td></tr></table></div></td></tr><tr><td><div><table><tr><td><div>Documentation</div></td></tr><tr><td><div>False</div></td></tr><tr><td><div>#</div></td></tr><tr><td><div><table><tr><td><div><table><tr><td><div>Online book</div></td></tr><tr><td><div>False</div></td></tr><tr><td><div>http://www.web2py.com/book</div></td></tr></table></div></td></tr><tr><td><div><li class="divider"></li></div></td></tr><tr><td><div><table><tr><td><div>Preface</div></td></tr><tr><td><div>False</div></td></tr><tr><td><div>http://www.web2py.com/book/default/chapter/00</div></td></tr></table></div></td></tr><tr><td><div><table><tr><td><div>Introduction</div></td></tr><tr><td><div>False</div></td></tr><tr><td><div>http://www.web2py.com/book/default/chapter/01</div></td></tr></table></div></td></tr><tr><td><div><table><tr><td><div>Python</div></td></tr><tr><td><div>False</div></td></tr><tr><td><div>http://www.web2py.com/book/default/chapter/02</div></td></tr></table></div></td></tr><tr><td><div><table><tr><td><div>Overview</div></td></tr><tr><td><div>False</div></td></tr><tr><td><div>http://www.web2py.com/book/default/chapter/03</div></td></tr></table></div></td></tr><tr><td><div><table><tr><td><div>The Core</div></td></tr><tr><td><div>False</div></td></tr><tr><td><div>http://www.web2py.com/book/default/chapter/04</div></td></tr></table></div></td></tr><tr><td><div><table><tr><td><div>The Views</div></td></tr><tr><td><div>False</div></td></tr><tr><td><div>http://www.web2py.com/book/default/chapter/05</div></td></tr></table></div></td></tr><tr><td><div><table><tr><td><div>Database</div></td></tr><tr><td><div>False</div></td></tr><tr><td><div>http://www.web2py.com/book/default/chapter/06</div></td></tr></table></div></td></tr><tr><td><div><table><tr><td><div>Forms and Validators</div></td></tr><tr><td><div>False</div></td></tr><tr><td><div>http://www.web2py.com/book/default/chapter/07</div></td></tr></table></div></td></tr><tr><td><div><table><tr><td><div>Email and SMS</div></td></tr><tr><td><div>False</div></td></tr><tr><td><div>http://www.web2py.com/book/default/chapter/08</div></td></tr></table></div></td></tr><tr><td><div><table><tr><td><div>Access Control</div></td></tr><tr><td><div>False</div></td></tr><tr><td><div>http://www.web2py.com/book/default/chapter/09</div></td></tr></table></div></td></tr><tr><td><div><table><tr><td><div>Services</div></td></tr><tr><td><div>False</div></td></tr><tr><td><div>http://www.web2py.com/book/default/chapter/10</div></td></tr></table></div></td></tr><tr><td><div><table><tr><td><div>Ajax Recipes</div></td></tr><tr><td><div>False</div></td></tr><tr><td><div>http://www.web2py.com/book/default/chapter/11</div></td></tr></table></div></td></tr><tr><td><div><table><tr><td><div>Components and Plugins</div></td></tr><tr><td><div>False</div></td></tr><tr><td><div>http://www.web2py.com/book/default/chapter/12</div></td></tr></table></div></td></tr><tr><td><div><table><tr><td><div>Deployment Recipes</div></td></tr><tr><td><div>False</div></td></tr><tr><td><div>http://www.web2py.com/book/default/chapter/13</div></td></tr></table></div></td></tr><tr><td><div><table><tr><td><div>Other Recipes</div></td></tr><tr><td><div>False</div></td></tr><tr><td><div>http://www.web2py.com/book/default/chapter/14</div></td></tr></table></div></td></tr><tr><td><div><table><tr><td><div>Helping web2py</div></td></tr><tr><td><div>False</div></td></tr><tr><td><div>http://www.web2py.com/book/default/chapter/15</div></td></tr></table></div></td></tr><tr><td><div><table><tr><td><div>Buy web2py\'s book</div></td></tr><tr><td><div>False</div></td></tr><tr><td><div>http://stores.lulu.com/web2py</div></td></tr></table></div></td></tr></table></div></td></tr></table></div></td></tr><tr><td><div><table><tr><td><div>Community</div></td></tr><tr><td><div>False</div></td></tr><tr><td><div>None</div></td></tr><tr><td><div><table><tr><td><div><table><tr><td><div>Groups</div></td></tr><tr><td><div>False</div></td></tr><tr><td><div>http://www.web2py.com/examples/default/usergroups</div></td></tr></table></div></td></tr><tr><td><div><table><tr><td><div>Twitter</div></td></tr><tr><td><div>False</div></td></tr><tr><td><div>http://twitter.com/web2py</div></td></tr></table></div></td></tr><tr><td><div><table><tr><td><div>Live Chat</div></td></tr><tr><td><div>False</div></td></tr><tr><td><div>http://webchat.freenode.net/?channels=web2py</div></td></tr></table></div></td></tr></table></div></td></tr></table></div></td></tr></table></div></td></tr><tr><td style="font-weight:bold;vertical-align:top;">meta</td><td style="vertical-align:top;">:</td><td><div><table><tr><td style="font-weight:bold;vertical-align:top;">author</td><td style="vertical-align:top;">:</td><td><div>Your Name &lt;you@example.com&gt;</div></td></tr><tr><td style="font-weight:bold;vertical-align:top;">description</td><td style="vertical-align:top;">:</td><td><div>a cool new app</div></td></tr><tr><td style="font-weight:bold;vertical-align:top;">generator</td><td style="vertical-align:top;">:</td><td><div>Web2py Web Framework</div></td></tr><tr><td style="font-weight:bold;vertical-align:top;">keywords</td><td style="vertical-align:top;">:</td><td><div>web2py, python, framework</div></td></tr></table></div></td></tr><tr><td style="font-weight:bold;vertical-align:top;">models_to_run</td><td style="vertical-align:top;">:</td><td><div><table><tr><td><div>^\\w+\\.py$</div></td></tr><tr><td><div>^default/\\w+\\.py$</div></td></tr><tr><td><div>^default/show_posts/\\w+\\.py$</div></td></tr></table></div></td></tr><tr><td style="font-weight:bold;vertical-align:top;">postprocessing</td><td style="vertical-align:top;">:</td><td><div><table></table></div></td></tr><tr><td style="font-weight:bold;vertical-align:top;">session_client</td><td style="vertical-align:top;">:</td><td><div>127.0.0.1</div></td></tr><tr><td style="font-weight:bold;vertical-align:top;">session_cookie_compression_level</td><td style="vertical-align:top;">:</td><td><div>None</div></td></tr><tr><td style="font-weight:bold;vertical-align:top;">session_cookie_expires</td><td style="vertical-align:top;">:</td><td><div>None</div></td></tr><tr><td style="font-weight:bold;vertical-align:top;">session_cookie_key</td><td style="vertical-align:top;">:</td><td><div>None</div></td></tr><tr><td style="font-weight:bold;vertical-align:top;">session_data_name</td><td style="vertical-align:top;">:</td><td><div>session_data_cmps183_project</div></td></tr><tr><td style="font-weight:bold;vertical-align:top;">session_file</td><td style="vertical-align:top;">:</td><td><div>None</div></td></tr><tr><td style="font-weight:bold;vertical-align:top;">session_filename</td><td style="vertical-align:top;">:</td><td><div>C:\\Users\\Taoh\\Desktop\\git\\Project-cmps183\\web2py\\applications\\cmps183_project\\sessions\\127.0.0.1-0784f1b5-a44b-4917-bfdf-f003459b494d</div></td></tr><tr><td style="font-weight:bold;vertical-align:top;">session_hash</td><td style="vertical-align:top;">:</td><td><div>c0762cbf4baf7f9af97c051e7fcb8083</div></td></tr><tr><td style="font-weight:bold;vertical-align:top;">session_id</td><td style="vertical-align:top;">:</td><td><div>127.0.0.1-0784f1b5-a44b-4917-bfdf-f003459b494d</div></td></tr><tr><td style="font-weight:bold;vertical-align:top;">session_id_name</td><td style="vertical-align:top;">:</td><td><div>session_id_cmps183_project</div></td></tr><tr><td style="font-weight:bold;vertical-align:top;">session_masterapp</td><td style="vertical-align:top;">:</td><td><div>cmps183_project</div></td></tr><tr><td style="font-weight:bold;vertical-align:top;">session_new</td><td style="vertical-align:top;">:</td><td><div>True</div></td></tr><tr><td style="font-weight:bold;vertical-align:top;">session_storage_type</td><td style="vertical-align:top;">:</td><td><div>file</div></td></tr><tr><td style="font-weight:bold;vertical-align:top;">status</td><td style="vertical-align:top;">:</td><td><div>200</div></td></tr><tr><td style="font-weight:bold;vertical-align:top;">subtitle</td><td style="vertical-align:top;">:</td><td><div></div></td></tr><tr><td style="font-weight:bold;vertical-align:top;">title</td><td style="vertical-align:top;">:</td><td><div>Cmps183 Project</div></td></tr><tr><td style="font-weight:bold;vertical-align:top;">view</td><td style="vertical-align:top;">:</td><td><div>default/show_posts.html</div></td></tr></table></div>'
tRp124
sS'locals'
p125
(dp126
S'Service'
p127
S"<class 'gluon.tools.Service'>"
p128
sS'FORMAT'
p129
S"'%(asctime)s %(levelname)s %(process)s %(thread)s %(funcName)s():%(lineno)d %(message)s'"
p130
sS'OBJECT'
p131
S"<class 'gluon.html.OBJECT'>"
p132
sS'SQLDB'
p133
S"<class 'pydal.base.DAL'>"
p134
sg117
S'<Storage {}>'
p135
sS'LINK'
p136
S"<class 'gluon.html.LINK'>"
p137
sS'BR'
p138
S"<class 'gluon.html.BR'>"
p139
sS'local_import'
p140
S'<function <lambda>>'
p141
sS'OPTGROUP'
p142
S"<class 'gluon.html.OPTGROUP'>"
p143
sS'__package__'
p144
S'None'
p145
sS'PRE'
p146
S"<class 'gluon.html.PRE'>"
p147
sS'IS_INT_IN_RANGE'
p148
S"<class 'gluon.validators.IS_INT_IN_RANGE'>"
p149
sS'left_sidebar_enabled'
p150
S'False'
p151
sS'IS_LOWER'
p152
S"<class 'gluon.validators.IS_LOWER'>"
p153
sS'IS_STRONG'
p154
S"<class 'gluon.validators.IS_STRONG'>"
p155
sS'cache'
p156
S'<gluon.cache.Cache object>'
p157
sS'IS_IN_DB'
p158
S"<class 'gluon.validators.IS_IN_DB'>"
p159
sS'TAG'
p160
S'<gluon.html.__TAG__ object>'
p161
sS'SQLField'
p162
S"<class 'pydal.objects.Field'>"
p163
sS'mail'
p164
S'<gluon.tools.Mail object>'
p165
sS'logger'
p166
S'<logging.Logger object>'
p167
sS'BODY'
p168
S"<class 'gluon.html.BODY'>"
p169
sS'IS_DATE_IN_RANGE'
p170
S"<class 'gluon.validators.IS_DATE_IN_RANGE'>"
p171
sS'IFRAME'
p172
S"<class 'gluon.html.IFRAME'>"
p173
sS'URL'
p174
S'<function URL>'
p175
sS'__file__'
p176
S"r'C:\\Users\\Taoh\\Desktop\\git\\Project-cmps183\\web2py...ons\\cmps183_project\\views\\default/show_posts.html'"
p177
sS'db'
p178
S'<DAL uri="sqlite://storage.sqlite">'
p179
sS'auth'
p180
S'<gluon.tools.Auth object>'
p181
sS'P'
S"<class 'gluon.html.P'>"
p182
sS'TFOOT'
p183
S"<class 'gluon.html.TFOOT'>"
p184
sS'timedelta'
p185
S"<type 'datetime.timedelta'>"
p186
sS'XHTML'
p187
S"<class 'gluon.html.XHTML'>"
p188
sS'datetime'
p189
S"<type 'datetime.datetime'>"
p190
sS'ON'
p191
S'True'
p192
sS'OL'
p193
S"<class 'gluon.html.OL'>"
p194
sS'TEXTAREA'
p195
S"<class 'gluon.html.TEXTAREA'>"
p196
sS'MENU'
p197
S"<class 'gluon.html.MENU'>"
p198
sS'images_dict'
p199
g43
sS'EM'
p200
S"<class 'gluon.html.EM'>"
p201
sS'CODE'
p202
S"<class 'gluon.html.CODE'>"
p203
sS'HTTP'
p204
S"<class 'gluon.http.HTTP'>"
p205
sS'HR'
p206
S"<class 'gluon.html.HR'>"
p207
sS'IS_DATETIME'
p208
S"<class 'gluon.validators.IS_DATETIME'>"
p209
sS'STYLE'
p210
S"<class 'gluon.html.STYLE'>"
p211
sS'LABEL'
p212
S"<class 'gluon.html.LABEL'>"
p213
sS'CLEANUP'
p214
S"<class 'gluon.validators.CLEANUP'>"
p215
sS'plugins'
p216
S'<gluon.tools.PluginManager object>'
p217
sS'SELECT'
p218
S"<class 'gluon.html.SELECT'>"
p219
sS'CENTER'
p220
S"<class 'gluon.html.CENTER'>"
p221
sS'prettydate'
p222
S'<function prettydate>'
p223
sS'Auth'
p224
S"<class 'gluon.tools.Auth'>"
p225
sS'DEVELOPMENT_MENU'
p226
g192
sS'__builtins__'
p227
S"{'ArithmeticError': <type 'exceptions.ArithmeticError'>, 'AssertionError': <type 'exceptions.AssertionError'>, 'AttributeError': <type 'exceptions.AttributeError'>, 'BaseException': <type 'exceptions.BaseException'>, 'BufferError': <type 'exceptions.BufferError'>, 'BytesWarning': <type 'exceptions.BytesWarning'>, 'DeprecationWarning': <type 'exceptions.DeprecationWarning'>, 'EOFError': <type 'exceptions.EOFError'>, 'Ellipsis': Ellipsis, 'EnvironmentError': <type 'exceptions.EnvironmentError'>, ...}"
p228
sS'HTML'
p229
S"<class 'gluon.html.HTML'>"
p230
sS'SQLFORM'
p231
S"<class 'gluon.sqlhtml.SQLFORM'>"
p232
sS'LOAD'
p233
S'<function LOAD>'
p234
sS'redirect'
p235
S'<function redirect>'
p236
sS'FIELDSET'
p237
S"<class 'gluon.html.FIELDSET'>"
p238
sS'IS_EQUAL_TO'
p239
S"<class 'gluon.validators.IS_EQUAL_TO'>"
p240
sS'embed64'
p241
S'<function embed64>'
p242
sS'in_production'
p243
g151
sS'IS_LIST_OF'
p244
S"<class 'gluon.validators.IS_LIST_OF'>"
p245
sS'INPUT'
p246
S"<class 'gluon.html.INPUT'>"
p247
sS'EMBED'
p248
S"<class 'gluon.html.EMBED'>"
p249
sS'_'
S'<function _>'
p250
sS'FORM'
p251
S"<class 'gluon.html.FORM'>"
p252
sS'logging'
p253
S"<module 'logging' from 'C:\\Python27\\lib\\logging\\__init__.pyc'>"
p254
sS'myconf'
p255
S"{'forms': {'formstyle': 'bootstrap3_inline', 'se...'you@gmail.com', 'server': 'smtp.gmail.com:587'}}"
p256
sS'H2'
p257
S"<class 'gluon.html.H2'>"
p258
sS'H3'
p259
S"<class 'gluon.html.H3'>"
p260
sS'AppConfig'
p261
S'<function AppConfig>'
p262
sS'H1'
p263
S"<class 'gluon.html.H1'>"
p264
sS'H6'
p265
S"<class 'gluon.html.H6'>"
p266
sS'H4'
p267
S"<class 'gluon.html.H4'>"
p268
sS'H5'
p269
S"<class 'gluon.html.H5'>"
p270
sS'UL'
p271
S"<class 'gluon.html.UL'>"
p272
sS'IS_UPPER'
p273
S"<class 'gluon.validators.IS_UPPER'>"
p274
sS'xmlescape'
p275
S'<function xmlescape>'
p276
sS'IS_TIME'
p277
S"<class 'gluon.validators.IS_TIME'>"
p278
sS'OPTION'
p279
S"<class 'gluon.html.OPTION'>"
p280
sS'TITLE'
p281
S"<class 'gluon.html.TITLE'>"
p282
sS'CRYPT'
p283
S"<class 'gluon.validators.CRYPT'>"
p284
sS'IS_EMPTY_OR'
p285
S"<class 'gluon.validators.IS_EMPTY_OR'>"
p286
sS'MARKMIN'
p287
S"<class 'gluon.html.MARKMIN'>"
p288
sS'__name__'
p289
S"'__restricted__'"
p290
sS'STRONG'
p291
S"<class 'gluon.html.STRONG'>"
p292
sS'COL'
p293
S"<class 'gluon.html.COL'>"
p294
sS'mc1'
p295
S"'col-md-9'"
p296
sS'mc0'
p297
S"'col-md-12'"
p298
sS'service'
p299
S'<gluon.tools.Service object>'
p300
sS'SCRIPT'
p301
S"<class 'gluon.html.SCRIPT'>"
p302
sS'TABLE'
p303
S"<class 'gluon.html.TABLE'>"
p304
sS'IS_IPV4'
p305
S"<class 'gluon.validators.IS_IPV4'>"
p306
sS'IS_LENGTH'
p307
S"<class 'gluon.validators.IS_LENGTH'>"
p308
sS'IS_IPV6'
p309
S"<class 'gluon.validators.IS_IPV6'>"
p310
sS'XML'
p311
S"<class 'gluon.html.XML'>"
p312
sS'B'
S"<class 'gluon.html.B'>"
p313
sS'IMG'
p314
S"<class 'gluon.html.IMG'>"
p315
sS'SQLTABLE'
p316
S"<class 'gluon.sqlhtml.SQLTABLE'>"
p317
sS'IS_MATCH'
p318
S"<class 'gluon.validators.IS_MATCH'>"
p319
sS'post_category'
p320
S"'art'"
p321
sS'IS_ALPHANUMERIC'
p322
S"<class 'gluon.validators.IS_ALPHANUMERIC'>"
p323
sS'SPAN'
p324
S"<class 'gluon.html.SPAN'>"
p325
sS'IS_JSON'
p326
S"<class 'gluon.validators.IS_JSON'>"
p327
sS'IS_IPADDRESS'
p328
S"<class 'gluon.validators.IS_IPADDRESS'>"
p329
sS'IS_SLUG'
p330
S"<class 'gluon.validators.IS_SLUG'>"
p331
sS'BEAUTIFY'
p332
S"<class 'gluon.html.BEAUTIFY'>"
p333
sS'META'
p334
S"<class 'gluon.html.META'>"
p335
sS'BUTTON'
p336
S"<class 'gluon.html.BUTTON'>"
p337
sS'IS_DATE'
p338
S"<class 'gluon.validators.IS_DATE'>"
p339
sS'IS_EMAIL'
p340
S"<class 'gluon.validators.IS_EMAIL'>"
p341
sS'middle_column'
p342
S"'col-md-12'"
p343
sS'IS_NOT_EMPTY'
p344
S"<class 'gluon.validators.IS_NOT_EMPTY'>"
p345
sS'IS_FLOAT_IN_RANGE'
p346
S"<class 'gluon.validators.IS_FLOAT_IN_RANGE'>"
p347
sS'TBODY'
p348
S"<class 'gluon.html.TBODY'>"
p349
sS'CAT'
p350
S"<class 'gluon.html.CAT'>"
p351
sS'Field'
p352
S"<class 'pydal.objects.Field'>"
p353
sS'mc2'
p354
S"'col-md-6'"
p355
sS'IS_LIST_OF_EMAILS'
p356
S"<class 'gluon.validators.IS_LIST_OF_EMAILS'>"
p357
sS'DIV'
p358
S"<class 'gluon.html.DIV'>"
p359
sS'LEGEND'
p360
S"<class 'gluon.html.LEGEND'>"
p361
sS'COLGROUP'
p362
S"<class 'gluon.html.COLGROUP'>"
p363
sS'DAL'
p364
S"<class 'pydal.base.DAL'>"
p365
sS'ASSIGNJS'
p366
S'<function ASSIGNJS>'
p367
sS'TR'
p368
S"<class 'gluon.html.TR'>"
p369
sS'LI'
p370
S"<class 'gluon.html.LI'>"
p371
sS'right_sidebar_enabled'
p372
g151
sS'post'
p373
S"<Row {'body': 'thanks', 'category': 'art', 'user...ploads': <Set (uploads.post = 123)>, 'id': 123L}>"
p374
sS'TH'
p375
S"<class 'gluon.html.TH'>"
p376
sS'TD'
p377
S"<class 'gluon.html.TD'>"
p378
sS'PluginManager'
p379
S"<class 'gluon.tools.PluginManager'>"
p380
sS'IS_URL'
p381
S"<class 'gluon.validators.IS_URL'>"
p382
sS'A'
S"<class 'gluon.html.A'>"
p383
sS'HEAD'
p384
S"<class 'gluon.html.HEAD'>"
p385
sS'IS_DATETIME_IN_RANGE'
p386
S"<class 'gluon.validators.IS_DATETIME_IN_RANGE'>"
p387
sS'IS_IMAGE'
p388
S"<class 'gluon.validators.IS_IMAGE'>"
p389
sS'I'
S"<class 'gluon.html.I'>"
p390
sS'icon_trash'
p391
S'<gluon.html.I object>'
p392
sS'icon_pencil'
p393
S'<gluon.html.I object>'
p394
sS'sys'
p395
S"<module 'sys' (built-in)>"
p396
sS'IS_NOT_IN_DB'
p397
S"<class 'gluon.validators.IS_NOT_IN_DB'>"
p398
sg123
S"<Storage {'body': <cStringIO.StringO object at 0...000044DFAC8>, 'view': 'default/show_posts.html'}>"
p399
sS'THEAD'
p400
S"<class 'gluon.html.THEAD'>"
p401
sS'ANY_OF'
p402
S"<class 'gluon.validators.ANY_OF'>"
p403
sS'IS_NULL_OR'
p404
S"<class 'gluon.validators.IS_EMPTY_OR'>"
p405
sS'post_list'
p406
S'<Rows (7)>'
p407
sg56
S"<Storage {'_vars': <Storage {}>, 'function': 'sh...ps183\\\\web2py\\\\applications\\\\cmps183_project\\\\'}>"
p408
sS'IS_EXPR'
p409
S"<class 'gluon.validators.IS_EXPR'>"
p410
sS'T'
S'<gluon.languages.translator object>'
p411
sS'IS_IN_SET'
p412
S"<class 'gluon.validators.IS_IN_SET'>"
p413
sS'IS_UPLOAD_FILENAME'
p414
S"<class 'gluon.validators.IS_UPLOAD_FILENAME'>"
p415
sS'TT'
p416
S"<class 'gluon.html.TT'>"
p417
sS'IS_DECIMAL_IN_RANGE'
p418
S"<class 'gluon.validators.IS_DECIMAL_IN_RANGE'>"
p419
sssS'traceback'
p420
S'Traceback (most recent call last):\n  File "C:\\Users\\Taoh\\Desktop\\git\\Project-cmps183\\web2py\\gluon\\restricted.py", line 227, in restricted\n    exec ccode in environment\n  File "C:\\Users\\Taoh\\Desktop\\git\\Project-cmps183\\web2py\\applications\\cmps183_project\\views\\default/show_posts.html", line 101, in <module>\n    </div>\nKeyError: 123L\n'
p421
s.