(dp1
S'output'
p2
S"<type 'exceptions.NameError'> name 'auth' is not defined"
p3
sS'layer'
p4
S'C:\\Users\\Taoh\\Desktop\\git\\CMPS183-Bryce\\cmps183_project\\applications\\rating\\models\\plugin_wiki.py'
p5
sS'code'
p6
S'# This file was developed by Massimo Di Pierro\n# It is released under BSD, MIT and GPL2 licenses\n\n###################################################\n# required parameters set by default if not set\n###################################################\n\nDEFAULT = {\n    \'editor\' : auth.user and auth.has_membership(role=\'editor\') or auth.user_id==1, # if current user a editor?\n    \'mode\'   : \'markmin\',    # \'markmin\' or \'html\' for wysiwyg editor\n    \'level\'  : 3,            # 1 - wiki only, 2 - widgets enables, 3 - remplate render enabled\n    \'migrate\': True,         # set to False in production\n    \'theme\'  : \'redmond\', # the jquery-ui theme, mapped into plugin_wiki/ui/%(theme)s/jquery-ui-1.8.1.custom.css\n    \'widgets\' : \'all\',       # list of widgets to be made available\n    \'authorize_attachments\' : False # shoudl attachment be restricted to the page?\n    }\n\ndef _():\n    """\n    the mambo jambo here makes sure that \n    PluginManager.wiki.xxx is also exposed as plugin_wiki_xxx\n    this is to minimize Storage lookup\n    """\n    if not \'db\' in globals() or not \'auth\' in globals():\n        raise HTTP(500,"plugin_wiki requires \'db\' and \'auth\'")\n    from gluon.tools import PluginManager\n    prefix=\'plugin_wiki_\'\n    plugins = PluginManager(\'wiki\',**dict(item for item in DEFAULT.items() if not prefix+item[0] in globals()))\n    globals().update(dict((prefix+item,plugins.wiki[item]) for item in DEFAULT))\n_()\n\n\n###################################################\n# js and css modules required by the plugin\n###################################################\nfor _f in [\'plugin_wiki/ui/css/%s/jquery-ui-1.8.5.custom.css\' % plugin_wiki_theme,\n           \'plugin_wiki/ui/js/jquery-ui-1.8.5.custom.min.js\',\n           \'plugin_wiki/jqgrid/ui.jqgrid.css\',\n           \'plugin_wiki/jqgrid/i18n/grid.locale-en.js\',              \n           \'plugin_wiki/jqgrid/jquery.jqGrid.min.js\',\n           \'plugin_wiki/slideshow/jquery.cycle.min.js\',\n           \'plugin_wiki/multiselect/jquery.multiselect.css\',\n           \'plugin_wiki/multiselect/jquery.multiselect.js\',\n           \'plugin_wiki/rating/jquery.rating.css\',\n           \'plugin_wiki/rating/jquery.rating.js\']:          \n    response.files.append(URL(\'static\',_f))\n\n###################################################\n# required tables\n###################################################\ndb.define_table(\'plugin_wiki_page\',\n                Field(\'slug\',writable=False,\n                      requires=(IS_SLUG(),IS_NOT_IN_DB(db,\'plugin_wiki_page.slug\'))),\n                Field(\'title\',default=\'\',\n                      requires=(IS_NOT_EMPTY(),IS_NOT_IN_DB(db,\'plugin_wiki_page.title\'))),\n                Field(\'active\',\'boolean\',default=True),\n                Field(\'public\',\'boolean\',default=True),\n                Field(\'body\',\'text\',default=\'\'),\n                Field(\'role\',db.auth_group,\n                      requires=IS_EMPTY_OR(IS_IN_DB(db,\'auth_group.id\',\'%(role)s\'))),\n                Field(\'changelog\',default=\'\'),\n                Field(\'created_by\',\n                      db.auth_user,default=auth.user_id,\n                      writable=False,readable=False),\n                Field(\'created_on\',\'datetime\',\n                      default=request.now,\n                      writable=False,readable=False),\n                Field(\'modified_by\',\n                      db.auth_user,default=auth.user_id,update=auth.user_id,\n                      writable=False,readable=False),\n                Field(\'modified_on\',\'datetime\',\n                      default=request.now,update=request.now,\n                      writable=False,readable=False),\n                format = \'%(slug)s\', migrate=plugin_wiki_migrate)\n\n\ndb.define_table(\'plugin_wiki_page_archive\',                                    \n                Field(\'current_record\',db.plugin_wiki_page),                               \n                db.plugin_wiki_page,\n                format = \'%(slug) %(modified_on)s\', migrate=plugin_wiki_migrate)\n\n\ndb.define_table(\'plugin_wiki_attachment\',\n                Field(\'tablename\',writable=False,readable=False),\n                Field(\'record_id\',\'integer\',writable=False,readable=False),\n                Field(\'name\',requires=IS_NOT_EMPTY()),\n                Field(\'file\',\'upload\',requires=IS_NOT_EMPTY(),autodelete=True),\n                Field(\'created_by\',\n                      db.auth_user,default=auth.user_id or 1,\n                      writable=False,readable=False),\n                Field(\'created_on\',\'datetime\',\n                      default=request.now,\n                      writable=False,readable=False),\n                Field(\'modified_by\',\n                      db.auth_user,default=auth.user_id,update=auth.user_id,\n                      writable=False,readable=False),\n                Field(\'modified_on\',\'datetime\',\n                      default=request.now,update=request.now,\n                      writable=False,readable=False),\n                format=\'%(name)s\', migrate=plugin_wiki_migrate)\n\n\ndb.define_table(\'plugin_wiki_comment\',\n                Field(\'tablename\',\n                      writable=False,readable=False),\n                Field(\'record_id\',\'integer\',\n                      writable=False,readable=False),\n                Field(\'body\',requires=IS_NOT_EMPTY(),label=\'Your comment\'),\n                Field(\'created_by\',db.auth_user,default=auth.user_id,\n                      readable=False,writable=False),\n                Field(\'created_on\',\'datetime\',default=request.now,\n                      readable=False,writable=False), migrate=plugin_wiki_migrate)\n\n\ndb.define_table(\'plugin_wiki_tag\',\n                Field(\'name\',requires=IS_NOT_IN_DB(db,\'plugin_wiki_tag.name\')),\n                Field(\'links\',\'integer\',default=0,writable=False),\n                Field(\'created_by\',db.auth_user,writable=False,readable=False,\n                      default=auth.user_id),\n                Field(\'created_on\',\'datetime\',\n                      default=request.now,writable=False,readable=False),\n                format=\'%(name)s\', migrate=plugin_wiki_migrate)\n\n\ndb.define_table(\'plugin_wiki_link\', \n                Field(\'tag\',db.plugin_wiki_tag),   \n                Field(\'table_name\'),\n                Field(\'record_id\',\'integer\'), migrate=plugin_wiki_migrate)\n\n\ndb.define_table(\'plugin_wiki_master\',\n                Field(\'tablename\'),\n                Field(\'record_id\',\'integer\'),\n                Field(\'rating\',\'double\'),\n                Field(\'counter\',\'integer\'))\n   \n   \ndb.define_table(\'plugin_wiki_aux\',\n                Field(\'master\',db.plugin_rating_master),\n                Field(\'rating\',\'double\'),\n                Field(\'created_by\',db.auth_user))\n   \n   \n###################################################\n# widgets embeddable in wiki pages\n###################################################\nclass PluginWikiWidgets:    \n    """\n    todo:\n    toc\n    in-place-wiki-edit\n    permission managemnt\n    voting plugin\n    """\n\n    ###############################################\n    # basic crud widgets (no ajax)\n    ###############################################\n\n    @staticmethod\n    def read(table,record_id=None):\n        """\n        ## read and display a record\n        - ``table`` is the name of a table\n        - ``record_id`` is a record number\n        """\n        if not record_id: record_id=request.args(-1)\n        if not record_id.isdigit(): return XML(\'no data\')\n        return crud.read(db[table],record_id)\n\n    @staticmethod\n    def _set_field_attributes(table,readonly_fields=\'\',hidden_fields=\'\',default_fields=\'\'):\n        if readonly_fields: \n            for f in readonly_fields.split(\',\'):\n                db[table][f.strip()].writable=False\n        if hidden_fields: \n            for f in hidden_fields.split(\',\'):\n                db[table][f.strip()].writable=False\n                db[table][f.strip()].readable=False                \n        if default_fields:\n            for f in default_fields.split(\',\'):\n                (key,value) = f.split(\'=\')\n                db[table][key.strip()].default=value.strip()\n\n    @staticmethod\n    def create(table,message=\'\',next=\'\',readonly_fields=\'\',\n               hidden_fields=\'\',default_fields=\'\'):\n        """\n        ## display a record create form\n        - ``table`` is the name of a table\n        - ``message`` is a the message to be displayed after record is created\n        - ``next`` is where to redirect, example "page/index/[id]"\n        - ``readonly_fields`` is a list of comma separated fields\n        - ``hidden_fields`` is a list of comma separated fields \n        - ``default_fields`` is a list of comma separated "fieldname=value"\n        """\n        PluginWikiWidgets._set_field_attributes(table, readonly_fields,hidden_fields,default_fields)\n        return crud.create(db[table],message=message,next=next)\n\n    @staticmethod\n    def update(table,record_id=\'\',message=\'\',next=\'\',\n               readonly_fields=\'\',hidden_fields=\'\',default_fields=\'\'):\n        """\n        ## display a record update form\n        - ``table`` is the name of a table\n        - ``record_id`` is he record to be updated or {{=request.args(-1)}}\n        - ``message`` is a the message to be displayed after record is created\n        - ``next`` is where to redirect, example "page/index/[id]"\n        - ``readonly_fields`` is a list of comma separated fields\n        - ``hidden_fields`` is a list of comma separated fields\n        - ``default_fields`` is a list of comma separated "fieldname=value"\n        """\n\n        PluginWikiWidgets._set_field_attributes(table, readonly_fields,hidden_fields,default_fields)\n        if not record_id: record_id=request.args(-1)\n        if not record_id.isdigit(): record_id=None\n        return crud.update(db[table],record_id,message=message,next=next)\n\n    @staticmethod\n    def select(table,query_field=\'\',query_value=\'\',fields=\'\'):\n        """\n        ## Lists all records in the table\n        - ``table`` is the name of a table\n        - ``query_field`` and ``query_value`` if present will filter records by query_field==query_value \n        - ``fields`` is a list of comma separate fields to be displayed\n        """\n        query=None\n        if query_field:\n            query = db[table][query_field]==query_value\n        if fields:\n            fields=[\'%s.%s\' % (table,f.strip()) for f in fields.split(\',\')]\n        else:\n            fields=None\n        return crud.select(db[table],query=query,fields=fields,headers=\'fieldname:capitalize\')\n\n    @staticmethod\n    def search(table,fields=\'\'):\n        """\n        ## A Widgets for selecting records\n        - ``table`` is the name of a table\n        - ``fields`` is a list of comma separated fields to be displayed\n        """\n        if fields:\n            fields=[\'%s.%s\' % (table,f.strip()) for f in fields.split(\',\')]\n        else:\n            fields=None\n        search, results = crud.search(db[table])\n        if not results: results=T(\'no results\')\n        else: results=SQLTABLE(results,fields=fields,headers=\'fieldname:capitalize\')\n        return DIV(search,results)\n\n    ###############################################\n    # advanced crud (jqgrid with ajax search)\n    ###############################################\n    @staticmethod    \n    def jqgrid(table,fieldname=None,fieldvalue=None,col_widths=\'\',\n               colnames=None,_id=None,fields=\'\',col_width=80,width=700,height=300):\n        """\n        ## Embed a jqGrid plugin\n        - ``table`` is the table name\n        - ``fieldname``, ``fieldvalue`` are an optional filter (fieldname==fieldvalue)\n        - ``_id`` is the "id" of the DIV that contains the jqGrid\n        - ``fields`` is a list of columns names to be displayed\n        - ``colnames`` is a list of column headers\n        - ``col_width`` is the width of each column (default) \n        - ``height`` is the height of the jqGrid\n        - ``width`` is the width of the jqGrid\n        """\n        from gluon.serializers import json\n        _id = \'jqgrid_%s\' % table\n        if not fields:\n            fields = [x.strip() for x in db[table].fields if db[table][x.strip()].readable]\n        elif isinstance(fields,str):\n            fields = [x.strip() for x in fields.split(\',\')]\n        else:\n            fields = fields\n        if col_widths:\n            col_widths = [x.strip() for x in col_widths.split(\',\')]\n        elif not col_widths:\n            col_widths = [col_width for x in fields]\n        if not colnames:\n            colnames = [(db[table][x].label or x) for x in fields]\n        elif isinstance(colnames,str):\n            colnames = [x.strip() for x in colnames]\n        colmodel = [{\'name\':x,\'index\':x, \'width\':col_widths[i], \'sortable\':True} \\\n                        for i,x in enumerate(fields)]\n        callback = URL(\'plugin_wiki\',\'jqgrid\',\n                       vars=dict(tablename=table,\n                                 columns=\',\'.join(fields),\n                                 fieldname=fieldname or \'\',\n                                 fieldvalue=fieldvalue,\n                                 ))\n        script="""\njQuery(document).ready(function(){jQuery("#%(id)s").jqGrid({ url:\'%(callback)s\', datatype: "json", colNames: %(colnames)s,colModel:%(colmodel)s, rowNum:10, rowList:[20,50,100], pager: \'#%(id)s_pager\', viewrecords: true,height:%(height)s});jQuery("#%(id)s").jqGrid(\'navGrid\',\'#%(id)s_pager\',{search:true,add:false,edit:false,del:false});jQuery("#%(id)s").setGridWidth(%(width)s,false);});\n""" % dict(callback=callback,colnames=json(colnames),\n           colmodel=json(colmodel),id=_id,height=height,width=width)\n        return TAG[\'\'](TABLE(_id=_id),\n                       DIV(_id=_id+"_pager"),\n                       SCRIPT(script))\n\n    ###############################################\n    # scientific widgets (latex, charting)\n    ###############################################\n    @staticmethod\n    def latex(expression):\n        """\n        ## Uses Google charting API to embed LaTeX \n        """\n        return XML(\'<img src="http://chart.apis.google.com/chart?cht=tx&chl=%s" align="center"/>\' % expression.replace(\'"\',\'\\"\'))\n\n    @staticmethod\n    def pie_chart(data=\'1,2,3\',names=\'a,b,c\',width=300,height=150,align=\'center\'):\n        """\n        ## Uses Google charting API to embed a pie chart\n        - ``data`` is a list of comma separated values \n        - ``names`` is a list of comma separated labels (one for data item)\n        - ``width`` is the width of the image\n        - ``height`` is the height of the image\n        - ``align`` determines the alignment of the image\n        """\n        if isinstance(data,str):\n            data = data.replace(\' \',\'\')\n        elif isinstance(data,dict):\n            data = \'|\'.join(\',\'.join(str(y) for y in s) for s in data.values())\n        elif isinstance(data,list):\n            data = \',\'.join(str(y) for y in data)\n        if isinstance(names,str):\n            names = \'|\'.join(name.strip() for name in names.split(\',\'))\n        else:\n            names = \'|\'.join(name for name in names)\n        return XML(\'<img src="http://chart.apis.google.com/chart?cht=p3&chd=s:cEj9U&chs=%(width)sx%(height)s&chl=%(names)s&chd=t:%(data)s" align="%(align)s">\' % dict(data=data,width=width,height=height,names=names,align=align))\n\n    @staticmethod\n    def bar_chart(data=\'1,2,3\',names=\'a,b,c\',width=300,height=150,align=\'center\'):\n        """\n        ## Uses Google charting API to embed a bar chart\n        - ``data`` is a list of comma separated values \n        - ``names`` is a list of comma separated labels (one for data item)\n        - ``width`` is the width of the image\n        - ``height`` is the height of the image\n        - ``align`` determines the alignment of the image\n        """\n        if isinstance(data,str):\n            data = data.replace(\' \',\'\')\n        elif isinstance(data,dict):\n            data = \'|\'.join(\',\'.join(str(y) for y in s) for s in data.values())\n        elif isinstance(data,list):\n            data = \',\'.join(str(y) for y in data)\n        if isinstance(names,str):\n            names = \'|\'.join(name.strip() for name in names.split(\',\'))\n        else:\n            names = \'|\'.join(name for name in names)\n        height=int(width)/2\n        return XML(\'<img src="http://chart.apis.google.com/chart?chxt=x,y&cht=bvs&chd=s:cEj9U&chls=2.0&chs=%(width)sx%(height)s&chxl=0:|%(names)s&chd=t:%(data)s" align="%(align)s">\' % dict(data=data,width=width,height=height,names=names,align=align))\n\n    ###############################################\n    # media widgets\n    ############################################### \n    @staticmethod\n    def slideshow(links=None,table=None,field=\'image\',transition=\'fade\',width=200,height=200):\n        """\n        ## Embeds a slideshow\n        It gets the images from a table\n\n        - ``table`` is the table name\n        - ``field`` is the upload field in the table that contains images\n        - ``transition`` determines the type of transition, e.g. fade, etc.\n        - ``width`` is the width of the image\n        - ``height`` is the height of the image\n        """\n\n        import random\n        id=str(random.random())[2:]\n        if table:\n            rows = db(db[table].id>0).select()\n            if db[table][field].type==\'upload\':\n                images = [IMG(_src=URL(\'default\',\'download\',args=row[field])) for row in rows]\n            else:\n                images = [IMG(_src=row[field]) for row in rows]\n        elif links:\n            images = [IMG(_src=link) for link in links.split(\',\')]\n        else:\n            images = []\n        return DIV(SCRIPT("jQuery(document).ready(function() {jQuery(\'#slideshow%s\').cycle({fx: \'%s\'});});" % (id,transition)),DIV(_id=\'slideshow\'+id,*images))\n\n    @staticmethod\n    def youtube(code,width=400,height=250):\n        """\n        ## Embeds a youtube video (by code)\n        - ``code`` is the code of the video\n        - ``width`` is the width of the image\n        - ``height`` is the height of the image\n        """\n\n        return XML("""<object width="%(width)s" height="%(height)s"><param name="movie" value="http://www.youtube.com/v/%(code)s&hl=en_US&fs=1&"></param><param name="allowFullScreen" value="true"></param><param name="allowscriptaccess" value="always"></param><embed src="http://www.youtube.com/v/%(code)s&hl=en_US&fs=1&" type="application/x-shockwave-flash" allowscriptaccess="always" allowfullscreen="true" width="%(width)s" height="%(height)s"></embed></object>""" % dict(code=code, width=width, height=height))\n\n    @staticmethod\n    def vimeo(code,width=400,height=250):\n        """\n        ## Embeds a viemo video (by code)\n        - ``code`` is the code of the video\n        - ``width`` is the width of the image\n        - ``height`` is the height of the image\n        """\n        return XML("""<object width="%(width)s" height="%(height)s"><param name="allowfullscreen" value="true" /><param name="allowscriptaccess" value="always" /><param name="movie" value="http://vimeo.com/moogaloop.swf?clip_id=%(code)s&amp;server=vimeo.com&amp;show_title=1&amp;show_byline=1&amp;show_portrait=0&amp;color=&amp;fullscreen=1" /><embed src="http://vimeo.com/moogaloop.swf?clip_id=%(code)s&amp;server=vimeo.com&amp;show_title=1&amp;show_byline=1&amp;show_portrait=0&amp;color=&amp;fullscreen=1" type="application/x-shockwave-flash" allowfullscreen="true" allowscriptaccess="always" width="%(width)s" height="%(height)s"></embed></object>""" % dict(code=code, width=width, height=height))\n\n    @staticmethod\n    def mediaplayer(src,width=400,height=250):\n        """\n        ## Embeds a media file (such as flash video or an mp3 file)\n        - ``src`` is the src of the video\n        - ``width`` is the width of the image\n        - ``height`` is the height of the image\n        """\n        return XML(\'<embed allowfullscreen="true" allowscriptaccess="always" flashvars="height=%(height)s&width=%(width)s&file=%(src)s" height="%(height)spx" src="%(url)s" width="%(width)spx"></embed>\'%dict(url=URL(\'static\',\'plugin_wiki/mediaplayer.swf\'),src=src,width=width,height=height))\n\n    ###############################################\n    # social widgets (comments and tags)\n    ###############################################\n    @staticmethod\n    def comments(table=\'None\',record_id=None):\n        """\n        ## Embeds comments in the page\n        Comments can be linked to a table and/or a record\n\n        - ``table`` is the table name \n        - ``record_id`` is the id of the record\n        """\n        return LOAD(\'plugin_wiki\',\'comment\',\n                    args=(table,record_id or 0),ajax=True)\n\n    @staticmethod\n    def tags(table=\'None\',record_id=None):\n        """\n        ## Embeds tags in the page\n        tags can be linked to a table and/or a record\n\n        - ``table`` is the table name \n        - ``record_id`` is the id of the record\n        """\n\n        return LOAD(\'plugin_wiki\',\'tags\',\n                    args=(table,record_id or 0),ajax=True)\n\n    @staticmethod\n    def tag_cloud():\n        """\n        ## Embeds a tag cloud\n        """\n\n        return LOAD(\'plugin_wiki\',\'cloud\')\n\n\n    @staticmethod\n    def map(key=\'ABQIAAAAT5em2PdsvF3z5onQpCqv0RTpH3CbXHjuCVmaTc5MkkU4wO1RRhQHEAKj2S9L72lEMpvNxzLVfJt6cg\',\n            table=\'auth_user\', width=400, height=200):\n        """\n        ## Embeds a Google map\n        Gets points on the map from a table\n        \n        - ``key`` is the google map api key (default works for 127.0.0.1)\n        - ``table`` is the table name\n        - ``width`` is the map width\n        - ``height`` is the map height\n\n        The table must have columns: latidude, longitude and map_popup.\n        When clicking on a dot, the map_popup message will appear. \n        """\n\n        import os\n        import gluon.template\n        content = open(os.path.join(request.folder,\'views\',\'plugin_wiki\',\n                                    \'map.html\'),\'rb\').read()\n        context = dict(googlemapkey=key, rows=db(db[table].id>0).select(),\n                       width=\'%spx\'%width,height=\'%spx\'%height)\n        return gluon.template.render(content=content,context=context) \n\n        \n    @staticmethod\n    def star_rating(table, record_id, splitstars=False): \n        """\n        ## Create a star rating widget for a given record in given table.\n        if given table has a field called \'rating\' average rating will also added to it.\n        it will save ratings from logedin users only.\n        \n        - ``table`` is the table name\n        - ``record_id`` is the id of record for which to show a rating widget.\n        - ``splitstars`` if set to True will display split stars.\n        """\n        import uuid \n        id = uuid.uuid4()        \n        row=db(db.plugin_wiki_master.tablename==table)(db.plugin_wiki_master.record_id==record_id).select().first()       \n        rating = row.rating if row else 0\n        callback = URL(\'plugin_wiki\', \'star_rate\', args = [table,record_id])  \n        incr = 0.5 if splitstars else 1       \n        return TAG[\'\'](DIV(_id=\'star\'+str(id),_class=\'rating\'),\n                       SCRIPT("jQuery(document).ready(function(){jQuery(\'%(uid)s\').rating(\'%(callback)s\',{increment:%(incr)s, maxvalue:5, curvalue:%(rating)s});});" % \n                                          dict(uid=\'#star\'+str(id), callback=callback,incr=incr, rating=rating)))      \n\n\n    @staticmethod\n    def iframe(src, width=400, height=300):\n        """\n        embed a page in an <iframe></iframe>\n        """\n        return TAG.iframe(_src=src, _width=width, _height=height)\n\n    @staticmethod\n    def load_url(src):\n        """\n        loads the contenct of the url via ajax\n        and traps forms\n        """\n        return LOAD(url=src)\n    \n    @staticmethod\n    def load_action(action, controller=\'\', ajax=True):\n        """\n        loads the content of URL(request.application, controller, action) via ajax\n        and traps forms\n        """\n        return LOAD(controller, action, ajax=ajax)\n\n\n###################################################\n# main class to intantiate the widget\n###################################################\nclass PluginWiki:\n\n    def __init__(self):\n        import re\n        regex = re.compile(\'(?P<s> *)(?P<t>.+) +(?P<k>\\S+)\')\n        menu_page = db(db.plugin_wiki_page.slug==\'meta-menu\').select().first()\n        code_page = db(db.plugin_wiki_page.slug==\'meta-code\').select().first()\n        if code_page and request.controller==\'plugin_wiki\' and not request.function in (\'page_edit\', \'page_history\'):\n            try:\n                exec(re.sub(\'\\r\\n|\\n\\r|\\r\',\'\\n\',code_page.body.strip()),\n                     globals())\n            except Exception, e:\n                import traceback\n                if plugin_wiki_editor:\n                    response.flash = DIV(H4(\'Execution error in page _proc\'),\n                                         PRE(traceback.format_exc()))\n                else:\n                    response.flash = \'Internal error, please contact the administrator\'\n        if menu_page:\n            response.menu=[]\n            parents = [(-1,response.menu)]\n            for line in menu_page.body.split(\'\\n\'):\n                match = regex.match(line)\n                if not match: continue\n                indent=len(match.group(\'s\'))\n                title=match.group(\'t\')\n                url=match.group(\'k\')\n                if url.lower()==\'none\':\n                    url=URL(\'plugin_wiki\',\'page\',args=request.args)\n                elif url.startswith(\'page:\'):\n                    url=URL(\'plugin_wiki\',\'page\',args=url[5:])\n                while indent<=parents[-1][0]:\n                    parents.pop()\n                newtree=[]\n                parents[-1][1].append((title,False,url,newtree)) \n                parents.append((indent,newtree))\n        self.extra = self.extra_blocks()\n        if plugin_wiki_editor:\n            response.menu.append((\'Pages\',False,URL(\'plugin_wiki\',\'index\')))\n\n    # this embeds page attachments\n    class attachments:   \n        def __init__(self,tablename,record_id=0,\n                     caption=\'Attachments\',close="Close",\n                     id=None,width=70,height=70,\n                     source=None):\n            import uuid\n            self.tablename=tablename\n            self.record_id=record_id\n            self.caption=caption\n            self.close=close\n            self.id=id or str(uuid.uuid4())\n            self.width=width\n            self.height=height\n            if not source:\n                source=URL(\'plugin_wiki\',\'attachments\',args=(tablename,record_id))\n            self.source = source\n        def xml(self):\n            return \'<div id="%(id)s" style="display:none"><div style="position:fixed;top:0%%;left:0%%;width:100%%;height:100%%;background-color:black;z-index:1001;-moz-opacity:0.8;opacity:.80;opacity:0.8;"></div><div style="position:fixed;top:%(top)s%%;left:%(left)s%%;width:%(width)s%%;height:%(height)s%%;padding:16px;border:2px solid black;background-color:white;opacity:1.0;z-index:1002;overflow:auto;-moz-border-radius: 10px; -webkit-border-radius: 10px;"><span style="font-weight:bold">%(title)s</span><span style="float:right">[<a href="#" onclick="jQuery(\\\'#%(id)s\\\').hide();return false;">%(close)s</a>]</span><hr/><div style="width:100%%;height:90%%;" id="c%(id)s"><iframe id="attachments_modal_content" style="width:100%%;height:100%%;border:0">%(loading)s</iframe></div></div></div><a href="#" onclick="jQuery(\\\'#attachments_modal_content\\\').attr(\\\'src\\\',\\\'%(source)s\\\');jQuery(\\\'#%(id)s\\\').fadeIn(); return false" id="plugin_wiki_open_attachments"">%(title)s</a>\' % dict(title=self.caption,source=self.source,close=self.close,id=self.id,left=(100-self.width)/2,top=(100-self.height)/2,width=self.width,height=self.height,loading=T(\'loading...\'))\n\n    class widget_builder:   \n        def __init__(self,\n                     caption=\'Widget Builder\',close="Close",\n                     id=None,width=70,height=70):\n            import uuid\n            self.caption=caption\n            self.close=close\n            self.id=id or str(uuid.uuid4())\n            self.width=width\n            self.height=height\n            self.source=URL(\'plugin_wiki\',\'widget_builder\')\n        def xml(self):\n            return \'<div id="%(id)s" style="display:none"><div style="position:fixed;top:0%%;left:0%%;width:100%%;height:100%%;background-color:black;z-index:1001;-moz-opacity:0.8;opacity:.80;opacity:0.8;"></div><div style="position:fixed;top:%(top)s%%;left:%(left)s%%;width:%(width)s%%;height:%(height)s%%;padding:16px;border:2px solid black;background-color:white;opacity:1.0;z-index:1002;overflow:auto;-moz-border-radius: 10px; -webkit-border-radius: 10px;"><span style="font-weight:bold">%(title)s</span><span style="float:right">[<a href="#" onclick="jQuery(\\\'#%(id)s\\\').hide();return false;">%(close)s</a>]</span><hr/><div style="width:100%%;height:90%%;" id="c%(id)s"><iframe id="widget_builder_modal_content" style="width:100%%;height:100%%;border:0">%(loading)s</iframe></div></div></div><a href="#" onclick="jQuery(\\\'#widget_builder_modal_content\\\').attr(\\\'src\\\',\\\'%(source)s\\\');jQuery(\\\'#%(id)s\\\').fadeIn(); return false" id="plugin_wiki_open_attachments"">%(title)s</a>\' % dict(title=self.caption,source=self.source,close=self.close,id=self.id,left=(100-self.width)/2,top=(100-self.height)/2,width=self.width,height=self.height,loading=T(\'loading...\'))\n\n    def pdf(self,text):\n        if not plugin_wiki_mode==\'markmin\':\n            raise RuntimeError, "Not supported"\n\n        response.headers[\'content-type\'] = \'application/pdf\'\n        return "Not implemented"\n\n    def render(self,text,level=plugin_wiki_level,page_url=URL()):\n        import re\n        if plugin_wiki_mode==\'html\':\n            return self.render_html(text,page_url)        \n        elif plugin_wiki_mode==\'markmin\':\n            return self.render_markmin(text,page_url)\n        else:\n            raise RuntimeError, "Not supported"\n\n    def parse_value(self,code):\n        code = code.replace(\'[page]\',request.args(0))\n        code = code.replace(\'[id]\',request.args(1) or \'\')\n        code = code.replace(\'[application]\',request.application)\n        code = code.replace(\'[client]\',request.client)\n        if plugin_wiki_level>2:\n            import gluon.template\n            return gluon.template.render(code,context=globals())\n        return code\n\n    def render_widget(self,code):        \n        try:\n            items = [x.strip().split(\':\',1) for x in code.split(\'\\n\')]\n            args = dict((item[0].strip(), self.parse_value(item[1].strip())) for item in items)\n            name = args.get(\'name\',\'\')\n            if not name or name[0]==\'_\': return \'ERROR\'\n            del args[\'name\']\n            html = getattr(PluginWikiWidgets,name)(**args)\n            if isinstance(html,str):\n                return html\n            elif html:\n                return html.xml()\n            else:\n                \'\'\n        except Exception,e:\n            if plugin_wiki_editor:\n                import traceback\n                return \'<div class="error"><pre>%s</pre></div>\' % traceback.format_exc()\n            else:\n                return \'<div class="error">system error</div>\'\n\n    def render_template(self,code):\n        import gluon.template\n        try:\n            return gluon.template.render(code,context=globals())\n        except Exception,e:\n            if plugin_wiki_editor:\n                import traceback\n                return \'<div class="error"><pre>%s</pre></div>\' % traceback.format_exc()\n            else:\n                return \'<div class="error">system error</div>\'\n\n    def extra_blocks(self):\n        extra = {}\n        LATEX = \'<img src="http://chart.apis.google.com/chart?cht=tx&chl=%s" align="center"/>\'\n        extra[\'latex\'] = lambda code: LATEX % code.replace(\'"\',\'\\"\')\n        extra[\'verbatim\'] = lambda code: cgi.escape(code)\n        extra[\'code\'] = lambda code: CODE(code,language=None).xml()\n        extra[\'code_python\'] = lambda code: CODE(code,language=\'python\').xml()\n        extra[\'code_c\'] = lambda code: CODE(code,language=\'c\').xml()\n        extra[\'code_cpp\'] = lambda code: CODE(code,language=\'cpp\').xml()\n        extra[\'code_java\'] = lambda code: CODE(code,language=\'java\').xml()\n        extra[\'code_html_plain\'] = lambda code: CODE(code,language=\'html_plain\').xml()\n        extra[\'code_html\'] = lambda code: CODE(code,language=\'html\').xml()\n        extra[\'code_web2py\'] = lambda code: CODE(code,language=\'web2py\').xml()\n        if plugin_wiki_level>1:\n            extra[\'widget\'] = lambda code: self.render_widget(code)\n        if plugin_wiki_level>2:\n            extra[\'template\'] = lambda code: self.render_template(code)\n        return extra\n\n    def render_markmin(self,text,page_url=URL()):\n        import re\n        att_url = URL(request.application,\'plugin_wiki\',\'attachment\')\n        session.plugin_wiki_attachments=[]\n        def register(match):\n            session.plugin_wiki_attachments.append(match.group(\'h\'))\n            return \'[[%s %s/%s\' % (match.group(\'t\'),att_url,match.group(\'h\'))\n        text = re.sub(\'\\[\\[(?P<t>[^\\[\\]]+)\\s+attachment:\\s*(?P<h>[\\w\\-\\.]+)\',\n                      register,text)\n        text = re.sub(\'\\[\\[(?P<t>[^\\[\\]]+) page:\',\'[[\\g<t> %s/\' % page_url,text)\n        return MARKMIN(text,extra=self.extra)\n\n    def render_html(self,text,page_url=URL()):\n        import re\n        text = text.replace(\'href="page:\',\'href="%s/\' % page_url) \n        att_url = URL(r=request,c=\'plugin_wiki\',f=\'attachment\')\n        text = text.replace(\'src="attachment:\', \'src="%s/\' % att_url)\n        regex_code = re.compile(\'``(?P<t>.*?)``:(?P<c>\\w+)\',re.S)\n        while True:\n            match=regex_code.search(text)\n            if not match:\n                break\n            if match.group(\'c\') in self.extra:\n                code = match.group(\'t\').strip().replace(\'<br>\',\'\')\n                html = self.extra[match.group(\'c\')](code)\n                text = text[:match.start()]+html+text[match.end():]\n        return XML(text,sanitize=plugin_wiki_level<2)\n\n    def embed_page(self,slug):\n        page=db(db.plugin_wiki_page.slug==slug).select().first()\n        if not page: return page\n        return XML(plugin_wiki.render(page.body))\n\n    def widget(self,name,*args,**kargs):\n        return getattr(PluginWikiWidgets,name)(*args,**kargs)\n\nplugin_wiki=PluginWiki()\n'
p7
sS'snapshot'
p8
(dp9
S'exception'
p10
(dp11
S'__hash__'
p12
S"<method-wrapper '__hash__' of exceptions.NameError object>"
p13
sS'__setattr__'
p14
S"<method-wrapper '__setattr__' of exceptions.NameError object>"
p15
sS'__reduce_ex__'
p16
S'<built-in method __reduce_ex__ of exceptions.NameError object>'
p17
sS'__getslice__'
p18
S"<method-wrapper '__getslice__' of exceptions.NameError object>"
p19
sS'__getitem__'
p20
S"<method-wrapper '__getitem__' of exceptions.NameError object>"
p21
sS'__setstate__'
p22
S'<built-in method __setstate__ of exceptions.NameError object>'
p23
sS'__reduce__'
p24
S'<built-in method __reduce__ of exceptions.NameError object>'
p25
sS'__str__'
p26
S"<method-wrapper '__str__' of exceptions.NameError object>"
p27
sS'__format__'
p28
S'<built-in method __format__ of exceptions.NameError object>'
p29
sS'__getattribute__'
p30
S"<method-wrapper '__getattribute__' of exceptions.NameError object>"
p31
sS'__class__'
p32
S"<type 'exceptions.NameError'>"
p33
sS'__unicode__'
p34
S'<built-in method __unicode__ of exceptions.NameError object>'
p35
sS'__delattr__'
p36
S"<method-wrapper '__delattr__' of exceptions.NameError object>"
p37
sS'__subclasshook__'
p38
S'<built-in method __subclasshook__ of type object>'
p39
sS'__repr__'
p40
S"<method-wrapper '__repr__' of exceptions.NameError object>"
p41
sS'__dict__'
p42
S'{}'
p43
sS'args'
p44
S'("name \'auth\' is not defined",)'
p45
sS'__sizeof__'
p46
S'<built-in method __sizeof__ of exceptions.NameError object>'
p47
sS'__doc__'
p48
S"'Name not found globally.'"
p49
sS'__init__'
p50
S"<method-wrapper '__init__' of exceptions.NameError object>"
p51
sS'__new__'
p52
S'<built-in method __new__ of type object>'
p53
ssS'evalue'
p54
S"name 'auth' is not defined"
p55
sS'request'
p56
cgluon.html
XML_unpickle
p57
(S'sq\x8f\x00\x00<div><table><tr><td style="font-weight:bold;vertical-align:top;">ajax</td><td style="vertical-align:top;">:</td><td><div>False</div></td></tr><tr><td style="font-weight:bold;vertical-align:top;">application</td><td style="vertical-align:top;">:</td><td><div>rating</div></td></tr><tr><td style="font-weight:bold;vertical-align:top;">args</td><td style="vertical-align:top;">:</td><td><div><table></table></div></td></tr><tr><td style="font-weight:bold;vertical-align:top;">cid</td><td style="vertical-align:top;">:</td><td><div>None</div></td></tr><tr><td style="font-weight:bold;vertical-align:top;">client</td><td style="vertical-align:top;">:</td><td><div>127.0.0.1</div></td></tr><tr><td style="font-weight:bold;vertical-align:top;">controller</td><td style="vertical-align:top;">:</td><td><div>default</div></td></tr><tr><td style="font-weight:bold;vertical-align:top;">cookies</td><td style="vertical-align:top;">:</td><td><div><table><tr><td style="font-weight:bold;vertical-align:top;">session_id_aa</td><td style="vertical-align:top;">:</td><td><div>127.0.0.1-bf264b82-f534-4e31-acab-e10f341ace77<table><tr><td style="font-weight:bold;vertical-align:top;">comment</td><td style="vertical-align:top;">:</td><td><div></div></td></tr><tr><td style="font-weight:bold;vertical-align:top;">domain</td><td style="vertical-align:top;">:</td><td><div></div></td></tr><tr><td style="font-weight:bold;vertical-align:top;">expires</td><td style="vertical-align:top;">:</td><td><div></div></td></tr><tr><td style="font-weight:bold;vertical-align:top;">httponly</td><td style="vertical-align:top;">:</td><td><div></div></td></tr><tr><td style="font-weight:bold;vertical-align:top;">max-age</td><td style="vertical-align:top;">:</td><td><div></div></td></tr><tr><td style="font-weight:bold;vertical-align:top;">path</td><td style="vertical-align:top;">:</td><td><div></div></td></tr><tr><td style="font-weight:bold;vertical-align:top;">secure</td><td style="vertical-align:top;">:</td><td><div></div></td></tr><tr><td style="font-weight:bold;vertical-align:top;">version</td><td style="vertical-align:top;">:</td><td><div></div></td></tr></table></div></td></tr><tr><td style="font-weight:bold;vertical-align:top;">session_id_admin</td><td style="vertical-align:top;">:</td><td><div>127.0.0.1-167b0db1-c237-42e1-bb2f-f14a34d97ca5<table><tr><td style="font-weight:bold;vertical-align:top;">comment</td><td style="vertical-align:top;">:</td><td><div></div></td></tr><tr><td style="font-weight:bold;vertical-align:top;">domain</td><td style="vertical-align:top;">:</td><td><div></div></td></tr><tr><td style="font-weight:bold;vertical-align:top;">expires</td><td style="vertical-align:top;">:</td><td><div></div></td></tr><tr><td style="font-weight:bold;vertical-align:top;">httponly</td><td style="vertical-align:top;">:</td><td><div></div></td></tr><tr><td style="font-weight:bold;vertical-align:top;">max-age</td><td style="vertical-align:top;">:</td><td><div></div></td></tr><tr><td style="font-weight:bold;vertical-align:top;">path</td><td style="vertical-align:top;">:</td><td><div></div></td></tr><tr><td style="font-weight:bold;vertical-align:top;">secure</td><td style="vertical-align:top;">:</td><td><div></div></td></tr><tr><td style="font-weight:bold;vertical-align:top;">version</td><td style="vertical-align:top;">:</td><td><div></div></td></tr></table></div></td></tr><tr><td style="font-weight:bold;vertical-align:top;">session_id_f</td><td style="vertical-align:top;">:</td><td><div>127.0.0.1-8f4afc7c-d89b-4b63-bc67-73ab362299ea<table><tr><td style="font-weight:bold;vertical-align:top;">comment</td><td style="vertical-align:top;">:</td><td><div></div></td></tr><tr><td style="font-weight:bold;vertical-align:top;">domain</td><td style="vertical-align:top;">:</td><td><div></div></td></tr><tr><td style="font-weight:bold;vertical-align:top;">expires</td><td style="vertical-align:top;">:</td><td><div></div></td></tr><tr><td style="font-weight:bold;vertical-align:top;">httponly</td><td style="vertical-align:top;">:</td><td><div></div></td></tr><tr><td style="font-weight:bold;vertical-align:top;">max-age</td><td style="vertical-align:top;">:</td><td><div></div></td></tr><tr><td style="font-weight:bold;vertical-align:top;">path</td><td style="vertical-align:top;">:</td><td><div></div></td></tr><tr><td style="font-weight:bold;vertical-align:top;">secure</td><td style="vertical-align:top;">:</td><td><div></div></td></tr><tr><td style="font-weight:bold;vertical-align:top;">version</td><td style="vertical-align:top;">:</td><td><div></div></td></tr></table></div></td></tr><tr><td style="font-weight:bold;vertical-align:top;">session_id_hidden_bryce</td><td style="vertical-align:top;">:</td><td><div>127.0.0.1-cedfff79-3282-402e-9112-30199955bd3d<table><tr><td style="font-weight:bold;vertical-align:top;">comment</td><td style="vertical-align:top;">:</td><td><div></div></td></tr><tr><td style="font-weight:bold;vertical-align:top;">domain</td><td style="vertical-align:top;">:</td><td><div></div></td></tr><tr><td style="font-weight:bold;vertical-align:top;">expires</td><td style="vertical-align:top;">:</td><td><div></div></td></tr><tr><td style="font-weight:bold;vertical-align:top;">httponly</td><td style="vertical-align:top;">:</td><td><div></div></td></tr><tr><td style="font-weight:bold;vertical-align:top;">max-age</td><td style="vertical-align:top;">:</td><td><div></div></td></tr><tr><td style="font-weight:bold;vertical-align:top;">path</td><td style="vertical-align:top;">:</td><td><div></div></td></tr><tr><td style="font-weight:bold;vertical-align:top;">secure</td><td style="vertical-align:top;">:</td><td><div></div></td></tr><tr><td style="font-weight:bold;vertical-align:top;">version</td><td style="vertical-align:top;">:</td><td><div></div></td></tr></table></div></td></tr><tr><td style="font-weight:bold;vertical-align:top;">session_id_hidden_new</td><td style="vertical-align:top;">:</td><td><div>127.0.0.1-0fe380bf-7a6c-4076-b377-998c5a08d889<table><tr><td style="font-weight:bold;vertical-align:top;">comment</td><td style="vertical-align:top;">:</td><td><div></div></td></tr><tr><td style="font-weight:bold;vertical-align:top;">domain</td><td style="vertical-align:top;">:</td><td><div></div></td></tr><tr><td style="font-weight:bold;vertical-align:top;">expires</td><td style="vertical-align:top;">:</td><td><div></div></td></tr><tr><td style="font-weight:bold;vertical-align:top;">httponly</td><td style="vertical-align:top;">:</td><td><div></div></td></tr><tr><td style="font-weight:bold;vertical-align:top;">max-age</td><td style="vertical-align:top;">:</td><td><div></div></td></tr><tr><td style="font-weight:bold;vertical-align:top;">path</td><td style="vertical-align:top;">:</td><td><div></div></td></tr><tr><td style="font-weight:bold;vertical-align:top;">secure</td><td style="vertical-align:top;">:</td><td><div></div></td></tr><tr><td style="font-weight:bold;vertical-align:top;">version</td><td style="vertical-align:top;">:</td><td><div></div></td></tr></table></div></td></tr><tr><td style="font-weight:bold;vertical-align:top;">session_id_hiddensc</td><td style="vertical-align:top;">:</td><td><div>127.0.0.1-b350fea3-ea83-4e91-b4d3-d9641d93a047<table><tr><td style="font-weight:bold;vertical-align:top;">comment</td><td style="vertical-align:top;">:</td><td><div></div></td></tr><tr><td style="font-weight:bold;vertical-align:top;">domain</td><td style="vertical-align:top;">:</td><td><div></div></td></tr><tr><td style="font-weight:bold;vertical-align:top;">expires</td><td style="vertical-align:top;">:</td><td><div></div></td></tr><tr><td style="font-weight:bold;vertical-align:top;">httponly</td><td style="vertical-align:top;">:</td><td><div></div></td></tr><tr><td style="font-weight:bold;vertical-align:top;">max-age</td><td style="vertical-align:top;">:</td><td><div></div></td></tr><tr><td style="font-weight:bold;vertical-align:top;">path</td><td style="vertical-align:top;">:</td><td><div></div></td></tr><tr><td style="font-weight:bold;vertical-align:top;">secure</td><td style="vertical-align:top;">:</td><td><div></div></td></tr><tr><td style="font-weight:bold;vertical-align:top;">version</td><td style="vertical-align:top;">:</td><td><div></div></td></tr></table></div></td></tr><tr><td style="font-weight:bold;vertical-align:top;">session_id_hw3</td><td style="vertical-align:top;">:</td><td><div>127.0.0.1-3e9d17db-6f00-4078-8729-546f4a757734<table><tr><td style="font-weight:bold;vertical-align:top;">comment</td><td style="vertical-align:top;">:</td><td><div></div></td></tr><tr><td style="font-weight:bold;vertical-align:top;">domain</td><td style="vertical-align:top;">:</td><td><div></div></td></tr><tr><td style="font-weight:bold;vertical-align:top;">expires</td><td style="vertical-align:top;">:</td><td><div></div></td></tr><tr><td style="font-weight:bold;vertical-align:top;">httponly</td><td style="vertical-align:top;">:</td><td><div></div></td></tr><tr><td style="font-weight:bold;vertical-align:top;">max-age</td><td style="vertical-align:top;">:</td><td><div></div></td></tr><tr><td style="font-weight:bold;vertical-align:top;">path</td><td style="vertical-align:top;">:</td><td><div></div></td></tr><tr><td style="font-weight:bold;vertical-align:top;">secure</td><td style="vertical-align:top;">:</td><td><div></div></td></tr><tr><td style="font-weight:bold;vertical-align:top;">version</td><td style="vertical-align:top;">:</td><td><div></div></td></tr></table></div></td></tr><tr><td style="font-weight:bold;vertical-align:top;">session_id_hw5_example</td><td style="vertical-align:top;">:</td><td><div>127.0.0.1-d33f4dc7-27ed-499e-a37c-9f19fcefb3f8<table><tr><td style="font-weight:bold;vertical-align:top;">comment</td><td style="vertical-align:top;">:</td><td><div></div></td></tr><tr><td style="font-weight:bold;vertical-align:top;">domain</td><td style="vertical-align:top;">:</td><td><div></div></td></tr><tr><td style="font-weight:bold;vertical-align:top;">expires</td><td style="vertical-align:top;">:</td><td><div></div></td></tr><tr><td style="font-weight:bold;vertical-align:top;">httponly</td><td style="vertical-align:top;">:</td><td><div></div></td></tr><tr><td style="font-weight:bold;vertical-align:top;">max-age</td><td style="vertical-align:top;">:</td><td><div></div></td></tr><tr><td style="font-weight:bold;vertical-align:top;">path</td><td style="vertical-align:top;">:</td><td><div></div></td></tr><tr><td style="font-weight:bold;vertical-align:top;">secure</td><td style="vertical-align:top;">:</td><td><div></div></td></tr><tr><td style="font-weight:bold;vertical-align:top;">version</td><td style="vertical-align:top;">:</td><td><div></div></td></tr></table></div></td></tr><tr><td style="font-weight:bold;vertical-align:top;">session_id_review1</td><td style="vertical-align:top;">:</td><td><div>127.0.0.1-cd7bd6ca-fac5-4b70-bc4c-fd5d67d2057e<table><tr><td style="font-weight:bold;vertical-align:top;">comment</td><td style="vertical-align:top;">:</td><td><div></div></td></tr><tr><td style="font-weight:bold;vertical-align:top;">domain</td><td style="vertical-align:top;">:</td><td><div></div></td></tr><tr><td style="font-weight:bold;vertical-align:top;">expires</td><td style="vertical-align:top;">:</td><td><div></div></td></tr><tr><td style="font-weight:bold;vertical-align:top;">httponly</td><td style="vertical-align:top;">:</td><td><div></div></td></tr><tr><td style="font-weight:bold;vertical-align:top;">max-age</td><td style="vertical-align:top;">:</td><td><div></div></td></tr><tr><td style="font-weight:bold;vertical-align:top;">path</td><td style="vertical-align:top;">:</td><td><div></div></td></tr><tr><td style="font-weight:bold;vertical-align:top;">secure</td><td style="vertical-align:top;">:</td><td><div></div></td></tr><tr><td style="font-weight:bold;vertical-align:top;">version</td><td style="vertical-align:top;">:</td><td><div></div></td></tr></table></div></td></tr><tr><td style="font-weight:bold;vertical-align:top;">session_id_review2</td><td style="vertical-align:top;">:</td><td><div>127.0.0.1-e22638e8-da7c-4cac-ad8f-6ca15c872e8b<table><tr><td style="font-weight:bold;vertical-align:top;">comment</td><td style="vertical-align:top;">:</td><td><div></div></td></tr><tr><td style="font-weight:bold;vertical-align:top;">domain</td><td style="vertical-align:top;">:</td><td><div></div></td></tr><tr><td style="font-weight:bold;vertical-align:top;">expires</td><td style="vertical-align:top;">:</td><td><div></div></td></tr><tr><td style="font-weight:bold;vertical-align:top;">httponly</td><td style="vertical-align:top;">:</td><td><div></div></td></tr><tr><td style="font-weight:bold;vertical-align:top;">max-age</td><td style="vertical-align:top;">:</td><td><div></div></td></tr><tr><td style="font-weight:bold;vertical-align:top;">path</td><td style="vertical-align:top;">:</td><td><div></div></td></tr><tr><td style="font-weight:bold;vertical-align:top;">secure</td><td style="vertical-align:top;">:</td><td><div></div></td></tr><tr><td style="font-weight:bold;vertical-align:top;">version</td><td style="vertical-align:top;">:</td><td><div></div></td></tr></table></div></td></tr><tr><td style="font-weight:bold;vertical-align:top;">session_id_taoh</td><td style="vertical-align:top;">:</td><td><div>127.0.0.1-f5f86bd8-8ca1-49bf-b9af-4b1a95ce9e0b<table><tr><td style="font-weight:bold;vertical-align:top;">comment</td><td style="vertical-align:top;">:</td><td><div></div></td></tr><tr><td style="font-weight:bold;vertical-align:top;">domain</td><td style="vertical-align:top;">:</td><td><div></div></td></tr><tr><td style="font-weight:bold;vertical-align:top;">expires</td><td style="vertical-align:top;">:</td><td><div></div></td></tr><tr><td style="font-weight:bold;vertical-align:top;">httponly</td><td style="vertical-align:top;">:</td><td><div></div></td></tr><tr><td style="font-weight:bold;vertical-align:top;">max-age</td><td style="vertical-align:top;">:</td><td><div></div></td></tr><tr><td style="font-weight:bold;vertical-align:top;">path</td><td style="vertical-align:top;">:</td><td><div></div></td></tr><tr><td style="font-weight:bold;vertical-align:top;">secure</td><td style="vertical-align:top;">:</td><td><div></div></td></tr><tr><td style="font-weight:bold;vertical-align:top;">version</td><td style="vertical-align:top;">:</td><td><div></div></td></tr></table></div></td></tr><tr><td style="font-weight:bold;vertical-align:top;">session_id_welcome</td><td style="vertical-align:top;">:</td><td><div>127.0.0.1-aa3660bb-73cd-45ee-bb9a-6a8bd697240b<table><tr><td style="font-weight:bold;vertical-align:top;">comment</td><td style="vertical-align:top;">:</td><td><div></div></td></tr><tr><td style="font-weight:bold;vertical-align:top;">domain</td><td style="vertical-align:top;">:</td><td><div></div></td></tr><tr><td style="font-weight:bold;vertical-align:top;">expires</td><td style="vertical-align:top;">:</td><td><div></div></td></tr><tr><td style="font-weight:bold;vertical-align:top;">httponly</td><td style="vertical-align:top;">:</td><td><div></div></td></tr><tr><td style="font-weight:bold;vertical-align:top;">max-age</td><td style="vertical-align:top;">:</td><td><div></div></td></tr><tr><td style="font-weight:bold;vertical-align:top;">path</td><td style="vertical-align:top;">:</td><td><div></div></td></tr><tr><td style="font-weight:bold;vertical-align:top;">secure</td><td style="vertical-align:top;">:</td><td><div></div></td></tr><tr><td style="font-weight:bold;vertical-align:top;">version</td><td style="vertical-align:top;">:</td><td><div></div></td></tr></table></div></td></tr></table></div></td></tr><tr><td style="font-weight:bold;vertical-align:top;">env</td><td style="vertical-align:top;">:</td><td><div><table><tr><td style="font-weight:bold;vertical-align:top;">HTTP_ACCEPT</td><td style="vertical-align:top;">:</td><td><div>text/html,application/xhtml+xml,application/xml;q=0.9,image/webp,*/*;q=0.8</div></td></tr><tr><td style="font-weight:bold;vertical-align:top;">HTTP_ACCEPT_ENCODING</td><td style="vertical-align:top;">:</td><td><div>gzip, deflate, sdch</div></td></tr><tr><td style="font-weight:bold;vertical-align:top;">HTTP_ACCEPT_LANGUAGE</td><td style="vertical-align:top;">:</td><td><div>en-US,en;q=0.8</div></td></tr><tr><td style="font-weight:bold;vertical-align:top;">HTTP_CONNECTION</td><td style="vertical-align:top;">:</td><td><div>keep-alive</div></td></tr><tr><td style="font-weight:bold;vertical-align:top;">HTTP_COOKIE</td><td style="vertical-align:top;">:</td><td><div>session_id_review1=127.0.0.1-cd7bd6ca-fac5-4b70-bc4c-fd5d67d2057e; session_id_review2=127.0.0.1-e22638e8-da7c-4cac-ad8f-6ca15c872e8b; session_id_aa=127.0.0.1-bf264b82-f534-4e31-acab-e10f341ace77; session_id_taoh=127.0.0.1-f5f86bd8-8ca1-49bf-b9af-4b1a95ce9e0b; session_id_f=127.0.0.1-8f4afc7c-d89b-4b63-bc67-73ab362299ea; session_id_hiddensc=127.0.0.1-b350fea3-ea83-4e91-b4d3-d9641d93a047; session_id_hidden_new=127.0.0.1-0fe380bf-7a6c-4076-b377-998c5a08d889; session_id_hidden_bryce=127.0.0.1-cedfff79-3282-402e-9112-30199955bd3d; session_id_hw5_example=127.0.0.1-d33f4dc7-27ed-499e-a37c-9f19fcefb3f8; session_id_hw3=127.0.0.1-3e9d17db-6f00-4078-8729-546f4a757734; session_id_welcome=127.0.0.1-aa3660bb-73cd-45ee-bb9a-6a8bd697240b; session_id_admin=127.0.0.1-167b0db1-c237-42e1-bb2f-f14a34d97ca5</div></td></tr><tr><td style="font-weight:bold;vertical-align:top;">HTTP_HOST</td><td style="vertical-align:top;">:</td><td><div>127.0.0.1:8800</div></td></tr><tr><td style="font-weight:bold;vertical-align:top;">HTTP_REFERER</td><td style="vertical-align:top;">:</td><td><div>http://127.0.0.1:8800/admin/default/site</div></td></tr><tr><td style="font-weight:bold;vertical-align:top;">HTTP_UPGRADE_INSECURE_REQUESTS</td><td style="vertical-align:top;">:</td><td><div>1</div></td></tr><tr><td style="font-weight:bold;vertical-align:top;">HTTP_USER_AGENT</td><td style="vertical-align:top;">:</td><td><div>Mozilla/5.0 (Windows NT 10.0; WOW64) AppleWebKit/537.36 (KHTML, like Gecko) Chrome/46.0.2490.86 Safari/537.36</div></td></tr><tr><td style="font-weight:bold;vertical-align:top;">PATH_INFO</td><td style="vertical-align:top;">:</td><td><div>/rating/default/index</div></td></tr><tr><td style="font-weight:bold;vertical-align:top;">QUERY_STRING</td><td style="vertical-align:top;">:</td><td><div></div></td></tr><tr><td style="font-weight:bold;vertical-align:top;">REMOTE_ADDR</td><td style="vertical-align:top;">:</td><td><div>127.0.0.1</div></td></tr><tr><td style="font-weight:bold;vertical-align:top;">REMOTE_PORT</td><td style="vertical-align:top;">:</td><td><div>50969</div></td></tr><tr><td style="font-weight:bold;vertical-align:top;">REQUEST_METHOD</td><td style="vertical-align:top;">:</td><td><div>GET</div></td></tr><tr><td style="font-weight:bold;vertical-align:top;">SCRIPT_NAME</td><td style="vertical-align:top;">:</td><td><div></div></td></tr><tr><td style="font-weight:bold;vertical-align:top;">SERVER_NAME</td><td style="vertical-align:top;">:</td><td><div>TaohsLaptop</div></td></tr><tr><td style="font-weight:bold;vertical-align:top;">SERVER_PORT</td><td style="vertical-align:top;">:</td><td><div>8800</div></td></tr><tr><td style="font-weight:bold;vertical-align:top;">SERVER_PROTOCOL</td><td style="vertical-align:top;">:</td><td><div>HTTP/1.1</div></td></tr><tr><td style="font-weight:bold;vertical-align:top;">SERVER_SOFTWARE</td><td style="vertical-align:top;">:</td><td><div>Rocket 1.2.6</div></td></tr><tr><td style="font-weight:bold;vertical-align:top;">app_folders</td><td style="vertical-align:top;">:</td><td><div>set([&#x27;C:\\\\Users\\\\Taoh\\\\Desktop\\\\git\\\\CMPS183-Bryce\\\\cmps183_project\\\\applications\\\\rating\\\\&#x27;, &#x27;C:\\\\Users\\\\Taoh\\\\Desktop\\\\git\\\\CMPS183-Bryce\\\\cmps183_project\\\\applications\\\\admin\\\\&#x27;, &#x27;C:\\\\Users\\\\Taoh\\\\Desktop\\\\git\\\\CMPS183-Bryce\\\\cmps183_project\\\\applications\\\\welcome\\\\&#x27;])</div></td></tr><tr><td style="font-weight:bold;vertical-align:top;">applications_parent</td><td style="vertical-align:top;">:</td><td><div>C:\\Users\\Taoh\\Desktop\\git\\CMPS183-Bryce\\cmps183_project</div></td></tr><tr><td style="font-weight:bold;vertical-align:top;">cmd_args</td><td style="vertical-align:top;">:</td><td><div><table></table></div></td></tr><tr><td style="font-weight:bold;vertical-align:top;">cmd_options</td><td style="vertical-align:top;">:</td><td><div>&lt;Values at 0x3f99248: {&#x27;verbose&#x27;: False, &#x27;ip&#x27;: &#x27;127.0.0.1&#x27;, &#x27;debuglevel&#x27;: 30, &#x27;with_scheduler&#x27;: False, &#x27;ips&#x27;: [], &#x27;shutdown_timeout&#x27;: 5, &#x27;taskbar&#x27;: False, &#x27;with_coverage&#x27;: False, &#x27;scheduler_groups&#x27;: None, &#x27;port&#x27;: 8800, &#x27;maxthreads&#x27;: None, &#x27;softcron&#x27;: False, &#x27;server_name&#x27;: &#x27;TaohsLaptop&#x27;, &#x27;bpython&#x27;: False, &#x27;nogui&#x27;: False, &#x27;pid_filename&#x27;: &#x27;httpserver.pid&#x27;, &#x27;print_errors&#x27;: True, &#x27;extcron&#x27;: False, &#x27;runcron&#x27;: False, &#x27;run_system_tests&#x27;: False, &#x27;test&#x27;: None, &#x27;folder&#x27;: &#x27;C:\\\\Users\\\\Taoh\\\\Desktop\\\\git\\\\CMPS183-Bryce\\\\cmps183_project&#x27;, &#x27;config&#x27;: &#x27;&#x27;, &#x27;minthreads&#x27;: None, &#x27;shell&#x27;: None, &#x27;run&#x27;: &#x27;&#x27;, &#x27;log_filename&#x27;: &#x27;httpserver.log&#x27;, &#x27;profiler_dir&#x27;: None, &#x27;args&#x27;: [&#x27;&#x27;], &#x27;socket_timeout&#x27;: 5, &#x27;ssl_ca_certificate&#x27;: None, &#x27;scheduler&#x27;: None, &#x27;interfaces&#x27;: None, &#x27;ssl_private_key&#x27;: &#x27;&#x27;, &#x27;gae&#x27;: None, &#x27;password&#x27;: &#x27;pass&#x27;, &#x27;request_queue_size&#x27;: 5, &#x27;ssl_certificate&#x27;: &#x27;&#x27;, &#x27;cronjob&#x27;: False, &#x27;numthreads&#x27;: None, &#x27;quiet&#x27;: False, &#x27;import_models&#x27;: False, &#x27;timeout&#x27;: 10, &#x27;plain&#x27;: False, &#x27;nobanner&#x27;: False}&gt;</div></td></tr><tr><td style="font-weight:bold;vertical-align:top;">db_sessions</td><td style="vertical-align:top;">:</td><td><div>set([])</div></td></tr><tr><td style="font-weight:bold;vertical-align:top;">debugging</td><td style="vertical-align:top;">:</td><td><div>False</div></td></tr><tr><td style="font-weight:bold;vertical-align:top;">gluon_parent</td><td style="vertical-align:top;">:</td><td><div>C:\\Users\\Taoh\\Desktop\\git\\CMPS183-Bryce\\cmps183_project</div></td></tr><tr><td style="font-weight:bold;vertical-align:top;">http_accept</td><td style="vertical-align:top;">:</td><td><div>text/html,application/xhtml+xml,application/xml;q=0.9,image/webp,*/*;q=0.8</div></td></tr><tr><td style="font-weight:bold;vertical-align:top;">http_accept_encoding</td><td style="vertical-align:top;">:</td><td><div>gzip, deflate, sdch</div></td></tr><tr><td style="font-weight:bold;vertical-align:top;">http_accept_language</td><td style="vertical-align:top;">:</td><td><div>en-US,en;q=0.8</div></td></tr><tr><td style="font-weight:bold;vertical-align:top;">http_connection</td><td style="vertical-align:top;">:</td><td><div>keep-alive</div></td></tr><tr><td style="font-weight:bold;vertical-align:top;">http_cookie</td><td style="vertical-align:top;">:</td><td><div>session_id_review1=127.0.0.1-cd7bd6ca-fac5-4b70-bc4c-fd5d67d2057e; session_id_review2=127.0.0.1-e22638e8-da7c-4cac-ad8f-6ca15c872e8b; session_id_aa=127.0.0.1-bf264b82-f534-4e31-acab-e10f341ace77; session_id_taoh=127.0.0.1-f5f86bd8-8ca1-49bf-b9af-4b1a95ce9e0b; session_id_f=127.0.0.1-8f4afc7c-d89b-4b63-bc67-73ab362299ea; session_id_hiddensc=127.0.0.1-b350fea3-ea83-4e91-b4d3-d9641d93a047; session_id_hidden_new=127.0.0.1-0fe380bf-7a6c-4076-b377-998c5a08d889; session_id_hidden_bryce=127.0.0.1-cedfff79-3282-402e-9112-30199955bd3d; session_id_hw5_example=127.0.0.1-d33f4dc7-27ed-499e-a37c-9f19fcefb3f8; session_id_hw3=127.0.0.1-3e9d17db-6f00-4078-8729-546f4a757734; session_id_welcome=127.0.0.1-aa3660bb-73cd-45ee-bb9a-6a8bd697240b; session_id_admin=127.0.0.1-167b0db1-c237-42e1-bb2f-f14a34d97ca5</div></td></tr><tr><td style="font-weight:bold;vertical-align:top;">http_host</td><td style="vertical-align:top;">:</td><td><div>127.0.0.1:8800</div></td></tr><tr><td style="font-weight:bold;vertical-align:top;">http_referer</td><td style="vertical-align:top;">:</td><td><div>http://127.0.0.1:8800/admin/default/site</div></td></tr><tr><td style="font-weight:bold;vertical-align:top;">http_upgrade_insecure_requests</td><td style="vertical-align:top;">:</td><td><div>1</div></td></tr><tr><td style="font-weight:bold;vertical-align:top;">http_user_agent</td><td style="vertical-align:top;">:</td><td><div>Mozilla/5.0 (Windows NT 10.0; WOW64) AppleWebKit/537.36 (KHTML, like Gecko) Chrome/46.0.2490.86 Safari/537.36</div></td></tr><tr><td style="font-weight:bold;vertical-align:top;">is_jython</td><td style="vertical-align:top;">:</td><td><div>False</div></td></tr><tr><td style="font-weight:bold;vertical-align:top;">is_pypy</td><td style="vertical-align:top;">:</td><td><div>False</div></td></tr><tr><td style="font-weight:bold;vertical-align:top;">is_source</td><td style="vertical-align:top;">:</td><td><div>True</div></td></tr><tr><td style="font-weight:bold;vertical-align:top;">local_hosts</td><td style="vertical-align:top;">:</td><td><div><table><tr><td><div>fe80::200:5efe:169.233.218.4%16</div></td></tr><tr><td><div>TaohsLaptop</div></td></tr><tr><td><div>2002:a9e9:da04::a9e9:da04</div></td></tr><tr><td><div>::ffff:127.0.0.1</div></td></tr><tr><td><div>::1</div></td></tr><tr><td><div>fe80::3c29:3e28:3f57:fe90%15</div></td></tr><tr><td><div>TaohsLaptop.ucsc.edu</div></td></tr><tr><td><div>169.233.218.4</div></td></tr><tr><td><div>fe80::fc17:71e:d965:e12f%9</div></td></tr><tr><td><div>127.0.0.1</div></td></tr></table></div></td></tr><tr><td style="font-weight:bold;vertical-align:top;">path_info</td><td style="vertical-align:top;">:</td><td><div>/rating/default/index</div></td></tr><tr><td style="font-weight:bold;vertical-align:top;">query_string</td><td style="vertical-align:top;">:</td><td><div></div></td></tr><tr><td style="font-weight:bold;vertical-align:top;">remote_addr</td><td style="vertical-align:top;">:</td><td><div>127.0.0.1</div></td></tr><tr><td style="font-weight:bold;vertical-align:top;">remote_port</td><td style="vertical-align:top;">:</td><td><div>50969</div></td></tr><tr><td style="font-weight:bold;vertical-align:top;">request_method</td><td style="vertical-align:top;">:</td><td><div>GET</div></td></tr><tr><td style="font-weight:bold;vertical-align:top;">request_uri</td><td style="vertical-align:top;">:</td><td><div>/rating/default/index</div></td></tr><tr><td style="font-weight:bold;vertical-align:top;">script_name</td><td style="vertical-align:top;">:</td><td><div></div></td></tr><tr><td style="font-weight:bold;vertical-align:top;">server_name</td><td style="vertical-align:top;">:</td><td><div>TaohsLaptop</div></td></tr><tr><td style="font-weight:bold;vertical-align:top;">server_port</td><td style="vertical-align:top;">:</td><td><div>8800</div></td></tr><tr><td style="font-weight:bold;vertical-align:top;">server_protocol</td><td style="vertical-align:top;">:</td><td><div>HTTP/1.1</div></td></tr><tr><td style="font-weight:bold;vertical-align:top;">server_software</td><td style="vertical-align:top;">:</td><td><div>Rocket 1.2.6</div></td></tr><tr><td style="font-weight:bold;vertical-align:top;">web2py_path</td><td style="vertical-align:top;">:</td><td><div>C:\\Users\\Taoh\\Desktop\\git\\CMPS183-Bryce\\cmps183_project</div></td></tr><tr><td style="font-weight:bold;vertical-align:top;">web2py_version</td><td style="vertical-align:top;">:</td><td><div>2.12.3-stable+timestamp.2015.08.19.00.18.03</div></td></tr><tr><td style="font-weight:bold;vertical-align:top;">wsgi.errors</td><td style="vertical-align:top;">:</td><td><div>&lt;open file &#x27;&lt;stderr&gt;&#x27;, mode &#x27;w&#x27; at 0x000000000205B150&gt;</div></td></tr><tr><td style="font-weight:bold;vertical-align:top;">wsgi.file_wrapper</td><td style="vertical-align:top;">:</td><td><div>&lt;class wsgiref.util.FileWrapper at 0x0000000003C4D8E8&gt;</div></td></tr><tr><td style="font-weight:bold;vertical-align:top;">wsgi.input</td><td style="vertical-align:top;">:</td><td><div>&lt;socket._fileobject object at 0x0000000003CECF48&gt;</div></td></tr><tr><td style="font-weight:bold;vertical-align:top;">wsgi.multiprocess</td><td style="vertical-align:top;">:</td><td><div>False</div></td></tr><tr><td style="font-weight:bold;vertical-align:top;">wsgi.multithread</td><td style="vertical-align:top;">:</td><td><div>True</div></td></tr><tr><td style="font-weight:bold;vertical-align:top;">wsgi.run_once</td><td style="vertical-align:top;">:</td><td><div>False</div></td></tr><tr><td style="font-weight:bold;vertical-align:top;">wsgi.url_scheme</td><td style="vertical-align:top;">:</td><td><div>http</div></td></tr><tr><td style="font-weight:bold;vertical-align:top;">wsgi.version</td><td style="vertical-align:top;">:</td><td><div><table><tr><td><div>1</div></td></tr><tr><td><div>0</div></td></tr></table></div></td></tr><tr><td style="font-weight:bold;vertical-align:top;">wsgi_errors</td><td style="vertical-align:top;">:</td><td><div>&lt;open file &#x27;&lt;stderr&gt;&#x27;, mode &#x27;w&#x27; at 0x000000000205B150&gt;</div></td></tr><tr><td style="font-weight:bold;vertical-align:top;">wsgi_file_wrapper</td><td style="vertical-align:top;">:</td><td><div>&lt;class wsgiref.util.FileWrapper at 0x0000000003C4D8E8&gt;</div></td></tr><tr><td style="font-weight:bold;vertical-align:top;">wsgi_input</td><td style="vertical-align:top;">:</td><td><div>&lt;socket._fileobject object at 0x0000000003CECF48&gt;</div></td></tr><tr><td style="font-weight:bold;vertical-align:top;">wsgi_multiprocess</td><td style="vertical-align:top;">:</td><td><div>False</div></td></tr><tr><td style="font-weight:bold;vertical-align:top;">wsgi_multithread</td><td style="vertical-align:top;">:</td><td><div>True</div></td></tr><tr><td style="font-weight:bold;vertical-align:top;">wsgi_run_once</td><td style="vertical-align:top;">:</td><td><div>False</div></td></tr><tr><td style="font-weight:bold;vertical-align:top;">wsgi_url_scheme</td><td style="vertical-align:top;">:</td><td><div>http</div></td></tr><tr><td style="font-weight:bold;vertical-align:top;">wsgi_version</td><td style="vertical-align:top;">:</td><td><div><table><tr><td><div>1</div></td></tr><tr><td><div>0</div></td></tr></table></div></td></tr></table></div></td></tr><tr><td style="font-weight:bold;vertical-align:top;">extension</td><td style="vertical-align:top;">:</td><td><div>html</div></td></tr><tr><td style="font-weight:bold;vertical-align:top;">folder</td><td style="vertical-align:top;">:</td><td><div>C:\\Users\\Taoh\\Desktop\\git\\CMPS183-Bryce\\cmps183_project\\applications\\rating\\</div></td></tr><tr><td style="font-weight:bold;vertical-align:top;">function</td><td style="vertical-align:top;">:</td><td><div>index</div></td></tr><tr><td style="font-weight:bold;vertical-align:top;">global_settings</td><td style="vertical-align:top;">:</td><td><div><table><tr><td style="font-weight:bold;vertical-align:top;">app_folders</td><td style="vertical-align:top;">:</td><td><div>set([&#x27;C:\\\\Users\\\\Taoh\\\\Desktop\\\\git\\\\CMPS183-Bryce\\\\cmps183_project\\\\applications\\\\rating\\\\&#x27;, &#x27;C:\\\\Users\\\\Taoh\\\\Desktop\\\\git\\\\CMPS183-Bryce\\\\cmps183_project\\\\applications\\\\admin\\\\&#x27;, &#x27;C:\\\\Users\\\\Taoh\\\\Desktop\\\\git\\\\CMPS183-Bryce\\\\cmps183_project\\\\applications\\\\welcome\\\\&#x27;])</div></td></tr><tr><td style="font-weight:bold;vertical-align:top;">applications_parent</td><td style="vertical-align:top;">:</td><td><div>C:\\Users\\Taoh\\Desktop\\git\\CMPS183-Bryce\\cmps183_project</div></td></tr><tr><td style="font-weight:bold;vertical-align:top;">cmd_args</td><td style="vertical-align:top;">:</td><td><div><table></table></div></td></tr><tr><td style="font-weight:bold;vertical-align:top;">cmd_options</td><td style="vertical-align:top;">:</td><td><div>&lt;Values at 0x3f99248: {&#x27;verbose&#x27;: False, &#x27;ip&#x27;: &#x27;127.0.0.1&#x27;, &#x27;debuglevel&#x27;: 30, &#x27;with_scheduler&#x27;: False, &#x27;ips&#x27;: [], &#x27;shutdown_timeout&#x27;: 5, &#x27;taskbar&#x27;: False, &#x27;with_coverage&#x27;: False, &#x27;scheduler_groups&#x27;: None, &#x27;port&#x27;: 8800, &#x27;maxthreads&#x27;: None, &#x27;softcron&#x27;: False, &#x27;server_name&#x27;: &#x27;TaohsLaptop&#x27;, &#x27;bpython&#x27;: False, &#x27;nogui&#x27;: False, &#x27;pid_filename&#x27;: &#x27;httpserver.pid&#x27;, &#x27;print_errors&#x27;: True, &#x27;extcron&#x27;: False, &#x27;runcron&#x27;: False, &#x27;run_system_tests&#x27;: False, &#x27;test&#x27;: None, &#x27;folder&#x27;: &#x27;C:\\\\Users\\\\Taoh\\\\Desktop\\\\git\\\\CMPS183-Bryce\\\\cmps183_project&#x27;, &#x27;config&#x27;: &#x27;&#x27;, &#x27;minthreads&#x27;: None, &#x27;shell&#x27;: None, &#x27;run&#x27;: &#x27;&#x27;, &#x27;log_filename&#x27;: &#x27;httpserver.log&#x27;, &#x27;profiler_dir&#x27;: None, &#x27;args&#x27;: [&#x27;&#x27;], &#x27;socket_timeout&#x27;: 5, &#x27;ssl_ca_certificate&#x27;: None, &#x27;scheduler&#x27;: None, &#x27;interfaces&#x27;: None, &#x27;ssl_private_key&#x27;: &#x27;&#x27;, &#x27;gae&#x27;: None, &#x27;password&#x27;: &#x27;pass&#x27;, &#x27;request_queue_size&#x27;: 5, &#x27;ssl_certificate&#x27;: &#x27;&#x27;, &#x27;cronjob&#x27;: False, &#x27;numthreads&#x27;: None, &#x27;quiet&#x27;: False, &#x27;import_models&#x27;: False, &#x27;timeout&#x27;: 10, &#x27;plain&#x27;: False, &#x27;nobanner&#x27;: False}&gt;</div></td></tr><tr><td style="font-weight:bold;vertical-align:top;">db_sessions</td><td style="vertical-align:top;">:</td><td><div>set([])</div></td></tr><tr><td style="font-weight:bold;vertical-align:top;">debugging</td><td style="vertical-align:top;">:</td><td><div>False</div></td></tr><tr><td style="font-weight:bold;vertical-align:top;">gluon_parent</td><td style="vertical-align:top;">:</td><td><div>C:\\Users\\Taoh\\Desktop\\git\\CMPS183-Bryce\\cmps183_project</div></td></tr><tr><td style="font-weight:bold;vertical-align:top;">is_jython</td><td style="vertical-align:top;">:</td><td><div>False</div></td></tr><tr><td style="font-weight:bold;vertical-align:top;">is_pypy</td><td style="vertical-align:top;">:</td><td><div>False</div></td></tr><tr><td style="font-weight:bold;vertical-align:top;">is_source</td><td style="vertical-align:top;">:</td><td><div>True</div></td></tr><tr><td style="font-weight:bold;vertical-align:top;">local_hosts</td><td style="vertical-align:top;">:</td><td><div><table><tr><td><div>fe80::200:5efe:169.233.218.4%16</div></td></tr><tr><td><div>TaohsLaptop</div></td></tr><tr><td><div>2002:a9e9:da04::a9e9:da04</div></td></tr><tr><td><div>::ffff:127.0.0.1</div></td></tr><tr><td><div>::1</div></td></tr><tr><td><div>fe80::3c29:3e28:3f57:fe90%15</div></td></tr><tr><td><div>TaohsLaptop.ucsc.edu</div></td></tr><tr><td><div>169.233.218.4</div></td></tr><tr><td><div>fe80::fc17:71e:d965:e12f%9</div></td></tr><tr><td><div>127.0.0.1</div></td></tr></table></div></td></tr><tr><td style="font-weight:bold;vertical-align:top;">web2py_version</td><td style="vertical-align:top;">:</td><td><div>2.12.3-stable+timestamp.2015.08.19.00.18.03</div></td></tr></table></div></td></tr><tr><td style="font-weight:bold;vertical-align:top;">is_https</td><td style="vertical-align:top;">:</td><td><div>False</div></td></tr><tr><td style="font-weight:bold;vertical-align:top;">is_local</td><td style="vertical-align:top;">:</td><td><div>True</div></td></tr><tr><td style="font-weight:bold;vertical-align:top;">is_restful</td><td style="vertical-align:top;">:</td><td><div>False</div></td></tr><tr><td style="font-weight:bold;vertical-align:top;">is_sheduler</td><td style="vertical-align:top;">:</td><td><div>None</div></td></tr><tr><td style="font-weight:bold;vertical-align:top;">is_shell</td><td style="vertical-align:top;">:</td><td><div>None</div></td></tr><tr><td style="font-weight:bold;vertical-align:top;">now</td><td style="vertical-align:top;">:</td><td><div>datetime.datetime(2015, 12, 3, 10, 37, 29, 512000)</div></td></tr><tr><td style="font-weight:bold;vertical-align:top;">raw_args</td><td style="vertical-align:top;">:</td><td><div></div></td></tr><tr><td style="font-weight:bold;vertical-align:top;">raw_extension</td><td style="vertical-align:top;">:</td><td><div>None</div></td></tr><tr><td style="font-weight:bold;vertical-align:top;">url</td><td style="vertical-align:top;">:</td><td><div>/rating/default/index</div></td></tr><tr><td style="font-weight:bold;vertical-align:top;">utcnow</td><td style="vertical-align:top;">:</td><td><div>datetime.datetime(2015, 12, 3, 18, 37, 29, 512000)</div></td></tr><tr><td style="font-weight:bold;vertical-align:top;">wsgi</td><td style="vertical-align:top;">:</td><td><div>&lt;gluon.main.LazyWSGI object at 0x0000000004401048&gt;</div></td></tr></table></div>'
tRp58
sS'frames'
p59
(lp60
(dp61
S'file'
p62
S'C:\\Users\\Taoh\\Desktop\\git\\CMPS183-Bryce\\cmps183_project\\gluon\\restricted.py'
p63
sS'dump'
p64
(dp65
S'environment'
p66
S"{'A': <class 'gluon.html.A'>, 'ANY_OF': <class 'gluon.validators.ANY_OF'>, 'ASSIGNJS': <function ASSIGNJS>, 'B': <class 'gluon.html.B'>, 'BEAUTIFY': <class 'gluon.html.BEAUTIFY'>, 'BODY': <class 'gluon.html.BODY'>, 'BR': <class 'gluon.html.BR'>, 'BUTTON': <class 'gluon.html.BUTTON'>, 'CAT': <class 'gluon.html.CAT'>, 'CENTER': <class 'gluon.html.CENTER'>, ...}"
p67
sS'ccode'
p68
S'<code object <module> at 0000000004468430, file ...plications\\rating\\models\\plugin_wiki.py", line 8>'
p69
ssS'lnum'
p70
I227
sS'lines'
p71
(dp72
I224
S'            ccode = code'
p73
sI225
S'        else:'
p74
sI226
S'            ccode = compile2(code, layer)'
p75
sI227
S'        exec ccode in environment'
p76
sI228
S'    except HTTP:'
p77
sI229
S'        raise'
p78
sI230
S'    except RestrictedError:'
p79
sI231
S'        # do not encapsulate (obfuscate) the original RestrictedError'
p80
sI222
S'    try:'
p81
sI223
S'        if isinstance(code, types.CodeType):'
p82
ssS'call'
p83
S"(code='# This file was developed by Massimo Di Pierro\\n#...s,name)(*args,**kargs)\\n\\nplugin_wiki=PluginWiki()\\n', environment={'A': <class 'gluon.html.A'>, 'ANY_OF': <class 'gluon.validators.ANY_OF'>, 'ASSIGNJS': <function ASSIGNJS>, 'B': <class 'gluon.html.B'>, 'BEAUTIFY': <class 'gluon.html.BEAUTIFY'>, 'BODY': <class 'gluon.html.BODY'>, 'BR': <class 'gluon.html.BR'>, 'BUTTON': <class 'gluon.html.BUTTON'>, 'CAT': <class 'gluon.html.CAT'>, 'CENTER': <class 'gluon.html.CENTER'>, ...}, layer=r'C:\\Users\\Taoh\\Desktop\\git\\CMPS183-Bryce\\cmps183_project\\applications\\rating\\models\\plugin_wiki.py')"
p84
sS'func'
p85
S'restricted'
p86
sa(dp87
g62
S'C:\\Users\\Taoh\\Desktop\\git\\CMPS183-Bryce\\cmps183_project\\applications\\rating\\models\\plugin_wiki.py'
p88
sg64
(dp89
S'role'
p90
S'undefined'
p91
sS'auth'
p92
g91
ssg70
I9
sg71
(dp93
I4
S'###################################################'
p94
sI5
S'# required parameters set by default if not set'
p95
sI6
S'###################################################'
p96
sI7
S''
sI8
S'DEFAULT = {'
p97
sI9
S"    'editor' : auth.user and auth.has_membership(role='editor') or auth.user_id==1, # if current user a editor?"
p98
sI10
S"    'mode'   : 'markmin',    # 'markmin' or 'html' for wysiwyg editor"
p99
sI11
S"    'level'  : 3,            # 1 - wiki only, 2 - widgets enables, 3 - remplate render enabled"
p100
sI12
S"    'migrate': True,         # set to False in production"
p101
sI13
S"    'theme'  : 'redmond', # the jquery-ui theme, mapped into plugin_wiki/ui/%(theme)s/jquery-ui-1.8.1.custom.css"
p102
ssg83
S'()'
p103
sg85
S'<module>'
p104
sasS'pyver'
p105
S'Python 2.7.10: C:\\Python27\\python.exe (prefix: C:\\Python27)'
p106
sS'session'
p107
g57
(S's\x1a\x00\x00\x00<div><table></table></div>'
tRp108
sS'etype'
p109
S"<type 'exceptions.NameError'>"
p110
sS'date'
p111
S'Thu Dec 03 10:37:29 2015'
p112
sS'response'
p113
g57
(S's\xdb\x16\x00\x00<div><table><tr><td style="font-weight:bold;vertical-align:top;">body</td><td style="vertical-align:top;">:</td><td><div>&lt;cStringIO.StringO object at 0x0000000004023490&gt;</div></td></tr><tr><td style="font-weight:bold;vertical-align:top;">cookies</td><td style="vertical-align:top;">:</td><td><div><table><tr><td style="font-weight:bold;vertical-align:top;">session_id_rating</td><td style="vertical-align:top;">:</td><td><div>127.0.0.1-a6f0c628-8710-4881-95ea-50af247b6cdd<table><tr><td style="font-weight:bold;vertical-align:top;">comment</td><td style="vertical-align:top;">:</td><td><div></div></td></tr><tr><td style="font-weight:bold;vertical-align:top;">domain</td><td style="vertical-align:top;">:</td><td><div></div></td></tr><tr><td style="font-weight:bold;vertical-align:top;">expires</td><td style="vertical-align:top;">:</td><td><div></div></td></tr><tr><td style="font-weight:bold;vertical-align:top;">httponly</td><td style="vertical-align:top;">:</td><td><div></div></td></tr><tr><td style="font-weight:bold;vertical-align:top;">max-age</td><td style="vertical-align:top;">:</td><td><div></div></td></tr><tr><td style="font-weight:bold;vertical-align:top;">path</td><td style="vertical-align:top;">:</td><td><div>/</div></td></tr><tr><td style="font-weight:bold;vertical-align:top;">secure</td><td style="vertical-align:top;">:</td><td><div></div></td></tr><tr><td style="font-weight:bold;vertical-align:top;">version</td><td style="vertical-align:top;">:</td><td><div></div></td></tr></table></div></td></tr></table></div></td></tr><tr><td style="font-weight:bold;vertical-align:top;">delimiters</td><td style="vertical-align:top;">:</td><td><div><table><tr><td><div>{{</div></td></tr><tr><td><div>}}</div></td></tr></table></div></td></tr><tr><td style="font-weight:bold;vertical-align:top;">files</td><td style="vertical-align:top;">:</td><td><div><table></table></div></td></tr><tr><td style="font-weight:bold;vertical-align:top;">flash</td><td style="vertical-align:top;">:</td><td><div></div></td></tr><tr><td style="font-weight:bold;vertical-align:top;">form_label_separator</td><td style="vertical-align:top;">:</td><td><div>: </div></td></tr><tr><td style="font-weight:bold;vertical-align:top;">formstyle</td><td style="vertical-align:top;">:</td><td><div>table3cols</div></td></tr><tr><td style="font-weight:bold;vertical-align:top;">generic_patterns</td><td style="vertical-align:top;">:</td><td><div><table><tr><td><div>*</div></td></tr></table></div></td></tr><tr><td style="font-weight:bold;vertical-align:top;">headers</td><td style="vertical-align:top;">:</td><td><div><table><tr><td style="font-weight:bold;vertical-align:top;">X-Powered-By</td><td style="vertical-align:top;">:</td><td><div>web2py</div></td></tr></table></div></td></tr><tr><td style="font-weight:bold;vertical-align:top;">menu</td><td style="vertical-align:top;">:</td><td><div><table></table></div></td></tr><tr><td style="font-weight:bold;vertical-align:top;">meta</td><td style="vertical-align:top;">:</td><td><div><table></table></div></td></tr><tr><td style="font-weight:bold;vertical-align:top;">models_to_run</td><td style="vertical-align:top;">:</td><td><div><table><tr><td><div>^\\w+\\.py$</div></td></tr><tr><td><div>^default/\\w+\\.py$</div></td></tr><tr><td><div>^default/index/\\w+\\.py$</div></td></tr></table></div></td></tr><tr><td style="font-weight:bold;vertical-align:top;">postprocessing</td><td style="vertical-align:top;">:</td><td><div><table></table></div></td></tr><tr><td style="font-weight:bold;vertical-align:top;">session_client</td><td style="vertical-align:top;">:</td><td><div>127.0.0.1</div></td></tr><tr><td style="font-weight:bold;vertical-align:top;">session_cookie_compression_level</td><td style="vertical-align:top;">:</td><td><div>None</div></td></tr><tr><td style="font-weight:bold;vertical-align:top;">session_cookie_expires</td><td style="vertical-align:top;">:</td><td><div>None</div></td></tr><tr><td style="font-weight:bold;vertical-align:top;">session_cookie_key</td><td style="vertical-align:top;">:</td><td><div>None</div></td></tr><tr><td style="font-weight:bold;vertical-align:top;">session_data_name</td><td style="vertical-align:top;">:</td><td><div>session_data_rating</div></td></tr><tr><td style="font-weight:bold;vertical-align:top;">session_file</td><td style="vertical-align:top;">:</td><td><div>None</div></td></tr><tr><td style="font-weight:bold;vertical-align:top;">session_filename</td><td style="vertical-align:top;">:</td><td><div>C:\\Users\\Taoh\\Desktop\\git\\CMPS183-Bryce\\cmps183_project\\applications\\rating\\sessions\\127.0.0.1-a6f0c628-8710-4881-95ea-50af247b6cdd</div></td></tr><tr><td style="font-weight:bold;vertical-align:top;">session_hash</td><td style="vertical-align:top;">:</td><td><div>c0762cbf4baf7f9af97c051e7fcb8083</div></td></tr><tr><td style="font-weight:bold;vertical-align:top;">session_id</td><td style="vertical-align:top;">:</td><td><div>127.0.0.1-a6f0c628-8710-4881-95ea-50af247b6cdd</div></td></tr><tr><td style="font-weight:bold;vertical-align:top;">session_id_name</td><td style="vertical-align:top;">:</td><td><div>session_id_rating</div></td></tr><tr><td style="font-weight:bold;vertical-align:top;">session_masterapp</td><td style="vertical-align:top;">:</td><td><div>rating</div></td></tr><tr><td style="font-weight:bold;vertical-align:top;">session_new</td><td style="vertical-align:top;">:</td><td><div>True</div></td></tr><tr><td style="font-weight:bold;vertical-align:top;">session_storage_type</td><td style="vertical-align:top;">:</td><td><div>file</div></td></tr><tr><td style="font-weight:bold;vertical-align:top;">status</td><td style="vertical-align:top;">:</td><td><div>200</div></td></tr><tr><td style="font-weight:bold;vertical-align:top;">view</td><td style="vertical-align:top;">:</td><td><div>default/index.html</div></td></tr></table></div>'
tRp114
sS'locals'
p115
(dp116
S'OBJECT'
p117
S"<class 'gluon.html.OBJECT'>"
p118
sS'SQLDB'
p119
S"<class 'pydal.base.DAL'>"
p120
sg107
S'<Storage {}>'
p121
sS'LINK'
p122
S"<class 'gluon.html.LINK'>"
p123
sS'BR'
p124
S"<class 'gluon.html.BR'>"
p125
sS'local_import'
p126
S'<function <lambda>>'
p127
sS'OPTGROUP'
p128
S"<class 'gluon.html.OPTGROUP'>"
p129
sS'PRE'
p130
S"<class 'gluon.html.PRE'>"
p131
sS'IS_INT_IN_RANGE'
p132
S"<class 'gluon.validators.IS_INT_IN_RANGE'>"
p133
sS'IS_LOWER'
p134
S"<class 'gluon.validators.IS_LOWER'>"
p135
sS'IS_STRONG'
p136
S"<class 'gluon.validators.IS_STRONG'>"
p137
sS'cache'
p138
S'<gluon.cache.Cache object>'
p139
sS'IS_IN_DB'
p140
S"<class 'gluon.validators.IS_IN_DB'>"
p141
sS'TAG'
p142
S'<gluon.html.__TAG__ object>'
p143
sS'SQLField'
p144
S"<class 'pydal.objects.Field'>"
p145
sS'BODY'
p146
S"<class 'gluon.html.BODY'>"
p147
sS'IS_DATE_IN_RANGE'
p148
S"<class 'gluon.validators.IS_DATE_IN_RANGE'>"
p149
sS'TH'
p150
S"<class 'gluon.html.TH'>"
p151
sS'URL'
p152
S'<function URL>'
p153
sS'__file__'
p154
S"r'C:\\Users\\Taoh\\Desktop\\git\\CMPS183-Bryce\\cmps183_project\\applications\\rating\\models\\plugin_wiki.py'"
p155
sS'P'
S"<class 'gluon.html.P'>"
p156
sS'TFOOT'
p157
S"<class 'gluon.html.TFOOT'>"
p158
sS'XHTML'
p159
S"<class 'gluon.html.XHTML'>"
p160
sS'ON'
p161
S'True'
p162
sS'OL'
p163
S"<class 'gluon.html.OL'>"
p164
sS'TEXTAREA'
p165
S"<class 'gluon.html.TEXTAREA'>"
p166
sS'MENU'
p167
S"<class 'gluon.html.MENU'>"
p168
sS'LOAD'
p169
S'<function LOAD>'
p170
sS'CODE'
p171
S"<class 'gluon.html.CODE'>"
p172
sS'HTTP'
p173
S"<class 'gluon.http.HTTP'>"
p174
sS'HR'
p175
S"<class 'gluon.html.HR'>"
p176
sS'IS_DATETIME'
p177
S"<class 'gluon.validators.IS_DATETIME'>"
p178
sS'HEAD'
p179
S"<class 'gluon.html.HEAD'>"
p180
sS'LABEL'
p181
S"<class 'gluon.html.LABEL'>"
p182
sS'CLEANUP'
p183
S"<class 'gluon.validators.CLEANUP'>"
p184
sS'SELECT'
p185
S"<class 'gluon.html.SELECT'>"
p186
sS'CENTER'
p187
S"<class 'gluon.html.CENTER'>"
p188
sS'__builtins__'
p189
S"{'ArithmeticError': <type 'exceptions.ArithmeticError'>, 'AssertionError': <type 'exceptions.AssertionError'>, 'AttributeError': <type 'exceptions.AttributeError'>, 'BaseException': <type 'exceptions.BaseException'>, 'BufferError': <type 'exceptions.BufferError'>, 'BytesWarning': <type 'exceptions.BytesWarning'>, 'DeprecationWarning': <type 'exceptions.DeprecationWarning'>, 'EOFError': <type 'exceptions.EOFError'>, 'Ellipsis': Ellipsis, 'EnvironmentError': <type 'exceptions.EnvironmentError'>, ...}"
p190
sS'HTML'
p191
S"<class 'gluon.html.HTML'>"
p192
sS'SQLFORM'
p193
S"<class 'gluon.sqlhtml.SQLFORM'>"
p194
sS'EM'
p195
S"<class 'gluon.html.EM'>"
p196
sS'redirect'
p197
S'<function redirect>'
p198
sS'FIELDSET'
p199
S"<class 'gluon.html.FIELDSET'>"
p200
sS'IS_EQUAL_TO'
p201
S"<class 'gluon.validators.IS_EQUAL_TO'>"
p202
sS'embed64'
p203
S'<function embed64>'
p204
sS'IS_LIST_OF'
p205
S"<class 'gluon.validators.IS_LIST_OF'>"
p206
sS'__name__'
p207
S"'__restricted__'"
p208
sS'EMBED'
p209
S"<class 'gluon.html.EMBED'>"
p210
sS'FORM'
p211
S"<class 'gluon.html.FORM'>"
p212
sS'H2'
p213
S"<class 'gluon.html.H2'>"
p214
sS'H3'
p215
S"<class 'gluon.html.H3'>"
p216
sS'BUTTON'
p217
S"<class 'gluon.html.BUTTON'>"
p218
sS'H1'
p219
S"<class 'gluon.html.H1'>"
p220
sS'H6'
p221
S"<class 'gluon.html.H6'>"
p222
sS'H4'
p223
S"<class 'gluon.html.H4'>"
p224
sS'H5'
p225
S"<class 'gluon.html.H5'>"
p226
sS'UL'
p227
S"<class 'gluon.html.UL'>"
p228
sS'IS_UPPER'
p229
S"<class 'gluon.validators.IS_UPPER'>"
p230
sS'xmlescape'
p231
S'<function xmlescape>'
p232
sS'IS_TIME'
p233
S"<class 'gluon.validators.IS_TIME'>"
p234
sS'OPTION'
p235
S"<class 'gluon.html.OPTION'>"
p236
sS'TITLE'
p237
S"<class 'gluon.html.TITLE'>"
p238
sS'CRYPT'
p239
S"<class 'gluon.validators.CRYPT'>"
p240
sS'IS_EMPTY_OR'
p241
S"<class 'gluon.validators.IS_EMPTY_OR'>"
p242
sS'MARKMIN'
p243
S"<class 'gluon.html.MARKMIN'>"
p244
sS'INPUT'
p245
S"<class 'gluon.html.INPUT'>"
p246
sS'STRONG'
p247
S"<class 'gluon.html.STRONG'>"
p248
sS'COL'
p249
S"<class 'gluon.html.COL'>"
p250
sS'SCRIPT'
p251
S"<class 'gluon.html.SCRIPT'>"
p252
sS'TABLE'
p253
S"<class 'gluon.html.TABLE'>"
p254
sS'IS_IPV4'
p255
S"<class 'gluon.validators.IS_IPV4'>"
p256
sS'IS_LENGTH'
p257
S"<class 'gluon.validators.IS_LENGTH'>"
p258
sS'IS_IPV6'
p259
S"<class 'gluon.validators.IS_IPV6'>"
p260
sS'XML'
p261
S"<class 'gluon.html.XML'>"
p262
sS'B'
S"<class 'gluon.html.B'>"
p263
sS'IMG'
p264
S"<class 'gluon.html.IMG'>"
p265
sS'SQLTABLE'
p266
S"<class 'gluon.sqlhtml.SQLTABLE'>"
p267
sS'IS_MATCH'
p268
S"<class 'gluon.validators.IS_MATCH'>"
p269
sS'IS_ALPHANUMERIC'
p270
S"<class 'gluon.validators.IS_ALPHANUMERIC'>"
p271
sS'SPAN'
p272
S"<class 'gluon.html.SPAN'>"
p273
sS'IS_JSON'
p274
S"<class 'gluon.validators.IS_JSON'>"
p275
sS'IS_IPADDRESS'
p276
S"<class 'gluon.validators.IS_IPADDRESS'>"
p277
sS'IS_SLUG'
p278
S"<class 'gluon.validators.IS_SLUG'>"
p279
sS'BEAUTIFY'
p280
S"<class 'gluon.html.BEAUTIFY'>"
p281
sS'META'
p282
S"<class 'gluon.html.META'>"
p283
sS'IS_DATE'
p284
S"<class 'gluon.validators.IS_DATE'>"
p285
sS'IS_EMAIL'
p286
S"<class 'gluon.validators.IS_EMAIL'>"
p287
sS'IS_NOT_EMPTY'
p288
S"<class 'gluon.validators.IS_NOT_EMPTY'>"
p289
sS'IS_FLOAT_IN_RANGE'
p290
S"<class 'gluon.validators.IS_FLOAT_IN_RANGE'>"
p291
sS'TBODY'
p292
S"<class 'gluon.html.TBODY'>"
p293
sS'CAT'
p294
S"<class 'gluon.html.CAT'>"
p295
sS'Field'
p296
S"<class 'pydal.objects.Field'>"
p297
sS'IS_LIST_OF_EMAILS'
p298
S"<class 'gluon.validators.IS_LIST_OF_EMAILS'>"
p299
sS'DIV'
p300
S"<class 'gluon.html.DIV'>"
p301
sS'LEGEND'
p302
S"<class 'gluon.html.LEGEND'>"
p303
sS'COLGROUP'
p304
S"<class 'gluon.html.COLGROUP'>"
p305
sS'DAL'
p306
S"<class 'pydal.base.DAL'>"
p307
sS'ASSIGNJS'
p308
S'<function ASSIGNJS>'
p309
sS'TR'
p310
S"<class 'gluon.html.TR'>"
p311
sS'LI'
p312
S"<class 'gluon.html.LI'>"
p313
sS'IFRAME'
p314
S"<class 'gluon.html.IFRAME'>"
p315
sS'TD'
p316
S"<class 'gluon.html.TD'>"
p317
sS'IS_URL'
p318
S"<class 'gluon.validators.IS_URL'>"
p319
sS'A'
S"<class 'gluon.html.A'>"
p320
sS'STYLE'
p321
S"<class 'gluon.html.STYLE'>"
p322
sS'IS_DATETIME_IN_RANGE'
p323
S"<class 'gluon.validators.IS_DATETIME_IN_RANGE'>"
p324
sS'IS_IMAGE'
p325
S"<class 'gluon.validators.IS_IMAGE'>"
p326
sS'I'
S"<class 'gluon.html.I'>"
p327
sS'IS_NOT_IN_DB'
p328
S"<class 'gluon.validators.IS_NOT_IN_DB'>"
p329
sg113
S"<Storage {'body': <cStringIO.StringO object at 0...000000000445A9E8>, 'view': 'default/index.html'}>"
p330
sS'THEAD'
p331
S"<class 'gluon.html.THEAD'>"
p332
sS'ANY_OF'
p333
S"<class 'gluon.validators.ANY_OF'>"
p334
sS'IS_NULL_OR'
p335
S"<class 'gluon.validators.IS_EMPTY_OR'>"
p336
sg56
S"<Storage {'_vars': None, 'function': 'index', 'c...Bryce\\\\cmps183_project\\\\applications\\\\rating\\\\'}>"
p337
sS'IS_EXPR'
p338
S"<class 'gluon.validators.IS_EXPR'>"
p339
sS'IS_IN_SET'
p340
S"<class 'gluon.validators.IS_IN_SET'>"
p341
sS'IS_UPLOAD_FILENAME'
p342
S"<class 'gluon.validators.IS_UPLOAD_FILENAME'>"
p343
sS'IS_DECIMAL_IN_RANGE'
p344
S"<class 'gluon.validators.IS_DECIMAL_IN_RANGE'>"
p345
sS'TT'
p346
S"<class 'gluon.html.TT'>"
p347
sS'T'
S'<gluon.languages.translator object>'
p348
sssS'traceback'
p349
S'Traceback (most recent call last):\n  File "C:\\Users\\Taoh\\Desktop\\git\\CMPS183-Bryce\\cmps183_project\\gluon\\restricted.py", line 227, in restricted\n    exec ccode in environment\n  File "C:\\Users\\Taoh\\Desktop\\git\\CMPS183-Bryce\\cmps183_project\\applications\\rating\\models\\plugin_wiki.py", line 9, in <module>\n    \'editor\' : auth.user and auth.has_membership(role=\'editor\') or auth.user_id==1, # if current user a editor?\nNameError: name \'auth\' is not defined\n'
p350
s.