(dp1
S'body'
p2
(dp3
S'length'
p4
I32768
sS'unique'
p5
I00
sS'sortable'
p6
I3
sS'sql'
p7
S'TEXT'
p8
sS'notnull'
p9
I00
sS'type'
p10
S'text'
p11
ssS'image1'
p12
(dp13
S'sortable'
p14
I8
sS'sql'
p15
S'CHAR(512)'
p16
sS'length'
p17
I512
sS'notnull'
p18
I00
sS'unique'
p19
I00
sS'type'
p20
S'upload'
p21
ssS'image'
p22
(dp23
S'sortable'
p24
L8L
sS'sql'
p25
S'CHAR(512)'
p26
sS'length'
p27
L512L
sS'notnull'
p28
L0L
sS'unique'
p29
L0L
sS'type'
p30
S'upload'
p31
ssS'post_day'
p32
(dp33
g4
I512
sg5
I00
sg6
I6
sg7
S'TIMESTAMP'
p34
sg9
I00
sg10
S'datetime'
<<<<<<< HEAD
p29
ssS'created_on'
p30
(dp31
g4
I512
sg5
I00
sg6
I13
sg7
S'TIMESTAMP'
p32
sg9
I00
sg10
g29
ssS'up_file'
p33
(dp34
g18
=======
p35
ssS'up_file'
p36
(dp37
g24
>>>>>>> f685177f7c2b21cbf8b8f8108f07c9e68f6c273b
L10L
sg25
S'CHAR(512)'
<<<<<<< HEAD
p35
sg21
=======
p38
sg27
>>>>>>> f685177f7c2b21cbf8b8f8108f07c9e68f6c273b
L512L
sg28
L0L
sg29
L0L
sg30
g31
ssS'image3'
<<<<<<< HEAD
p36
(dp37
g4
I512
sg5
I00
sg6
=======
p39
(dp40
g14
>>>>>>> f685177f7c2b21cbf8b8f8108f07c9e68f6c273b
I10
sg15
S'CHAR(512)'
<<<<<<< HEAD
p38
sg9
I00
sg10
g15
ssS'image2'
p39
(dp40
g4
=======
p41
sg17
>>>>>>> f685177f7c2b21cbf8b8f8108f07c9e68f6c273b
I512
sg18
I00
sg19
I00
sg20
g21
ssS'image2'
p42
(dp43
g14
I9
sg15
S'CHAR(512)'
<<<<<<< HEAD
p41
sg9
I00
sg10
g15
ssS'user_id_2'
p42
(dp43
g4
=======
p44
sg17
>>>>>>> f685177f7c2b21cbf8b8f8108f07c9e68f6c273b
I512
sg18
I00
sg19
I00
sg20
g21
ssS'user_id_2'
p45
(dp46
g14
I7
sg15
S'INTEGER REFERENCES auth_user (id) ON DELETE CASCADE  '
<<<<<<< HEAD
p44
sg9
=======
p47
sg17
I512
sg18
>>>>>>> f685177f7c2b21cbf8b8f8108f07c9e68f6c273b
I00
sg19
I00
sg20
S'reference auth_user'
<<<<<<< HEAD
p45
ssS'which_board'
p46
(dp47
S'sortable'
p48
L4L
sS'sql'
p49
S'INTEGER REFERENCES board (id) ON DELETE CASCADE  '
p50
sS'length'
p51
L512L
sS'notnull'
p52
L0L
sS'unique'
p53
L0L
sS'type'
p54
S'reference board'
p55
ssS'image5'
p56
(dp57
g4
I512
sg5
I00
sg6
=======
p48
ssS'which_board'
p49
(dp50
S'sortable'
p51
L4L
sS'sql'
p52
S'INTEGER REFERENCES board (id) ON DELETE CASCADE  '
p53
sS'length'
p54
L512L
sS'notnull'
p55
L0L
sS'unique'
p56
L0L
sS'type'
p57
S'reference board'
p58
ssS'image5'
p59
(dp60
g14
>>>>>>> f685177f7c2b21cbf8b8f8108f07c9e68f6c273b
I12
sg15
S'CHAR(512)'
<<<<<<< HEAD
p58
sg9
I00
sg10
g15
ssS'image4'
p59
(dp60
g4
=======
p61
sg17
>>>>>>> f685177f7c2b21cbf8b8f8108f07c9e68f6c273b
I512
sg18
I00
sg19
I00
sg20
g21
ssS'image4'
p62
(dp63
g14
I11
sg15
S'CHAR(512)'
<<<<<<< HEAD
p61
sg9
=======
p64
sg17
I512
sg18
>>>>>>> f685177f7c2b21cbf8b8f8108f07c9e68f6c273b
I00
sg19
I00
sg20
g21
ssS'favorite_board'
<<<<<<< HEAD
p62
(dp63
S'sortable'
p64
L4L
sS'sql'
p65
S'INTEGER REFERENCES board (id) ON DELETE CASCADE  '
p66
sS'length'
p67
L512L
sS'notnull'
p68
L0L
sS'unique'
p69
L0L
sS'type'
p70
S'reference board'
p71
ssS'user_id'
p72
(dp73
=======
p65
(dp66
S'sortable'
p67
L4L
sS'sql'
p68
S'INTEGER REFERENCES board (id) ON DELETE CASCADE  '
p69
sS'length'
p70
L512L
sS'notnull'
p71
L0L
sS'unique'
p72
L0L
sS'type'
p73
S'reference board'
p74
ssS'user_id'
p75
(dp76
>>>>>>> f685177f7c2b21cbf8b8f8108f07c9e68f6c273b
g4
I512
sg5
I00
sg6
I5
sg7
S'INTEGER'
<<<<<<< HEAD
p74
=======
p77
>>>>>>> f685177f7c2b21cbf8b8f8108f07c9e68f6c273b
sg9
I00
sg10
S'integer'
<<<<<<< HEAD
p75
ssS'title'
p76
(dp77
=======
p78
ssS'title'
p79
(dp80
>>>>>>> f685177f7c2b21cbf8b8f8108f07c9e68f6c273b
g4
I512
sg5
I00
sg6
I2
sg7
S'CHAR(512)'
<<<<<<< HEAD
p78
=======
p81
>>>>>>> f685177f7c2b21cbf8b8f8108f07c9e68f6c273b
sg9
I00
sg10
S'string'
<<<<<<< HEAD
p79
ssS'created_by'
p80
(dp81
g4
I512
sg5
I00
sg6
I14
sg7
S'INTEGER REFERENCES auth_user (id) ON DELETE CASCADE  '
p82
sg9
I00
sg10
S'reference auth_user'
p83
ssS'id'
p84
(dp85
g4
I512
sg5
I00
sg6
=======
p82
ssS'id'
p83
(dp84
g14
>>>>>>> f685177f7c2b21cbf8b8f8108f07c9e68f6c273b
I1
sg15
S'INTEGER PRIMARY KEY AUTOINCREMENT'
<<<<<<< HEAD
p86
sg9
=======
p85
sg17
I512
sg18
>>>>>>> f685177f7c2b21cbf8b8f8108f07c9e68f6c273b
I00
sg19
I00
sg20
S'id'
<<<<<<< HEAD
p87
ssS'board'
p88
(dp89
=======
p86
ssS'board'
p87
(dp88
>>>>>>> f685177f7c2b21cbf8b8f8108f07c9e68f6c273b
g4
I512
sg5
I00
sg6
I4
sg7
S'INTEGER REFERENCES board (id) ON DELETE CASCADE  '
<<<<<<< HEAD
p90
=======
p89
>>>>>>> f685177f7c2b21cbf8b8f8108f07c9e68f6c273b
sg9
I00
sg10
S'reference board'
<<<<<<< HEAD
p91
=======
p90
>>>>>>> f685177f7c2b21cbf8b8f8108f07c9e68f6c273b
ss.