(dp1
S'output'
p2
S"<type 'exceptions.TypeError'> 'int' object is not iterable"
p3
sS'layer'
p4
S'C:\\Users\\bryce\\Desktop\\web2py\\applications\\HiddenSC\\views\\default/show_posts.html'
p5
sS'code'
p6
S'response.write(\'<!DOCTYPE html>\\n<!--[if (gt IE 9)|!(IE)]><!--> <html class="no-js" lang="\', escape=False)\nresponse.write(T.accepted_language or \'en\')\nresponse.write(\'"> <!--<![endif]-->\\n  <head>\\n    <meta charset="utf-8">\\n    <!-- www.phpied.com/conditional-comments-block-downloads/ -->\\n    <!-- Always force latest IE rendering engine\\n         (even in intranet) & Chrome Frame\\n         Remove this if you use the .htaccess -->\\n    <meta http-equiv="X-UA-Compatible" content="IE=edge\', escape=False)\nresponse.write(not request.is_local and \',chrome=1\' or \'\')\nresponse.write(\'">\\n    <!--  Mobile Viewport Fix\\n          j.mp/mobileviewport & davidbcalhoun.com/2010/viewport-metatag\\n          device-width: Occupy full width of the screen in its current orientation\\n          initial-scale = 1.0 retains dimensions instead of zooming out if page height > device height\\n          user-scalable = yes allows the user to zoom in -->\\n    <meta name="viewport" content="width=device-width, initial-scale=1.0">\\n    <title>\', escape=False)\nresponse.write(response.title or request.application)\nresponse.write(\'</title>\\n    <!-- http://dev.w3.org/html5/markup/meta.name.html -->\\n    <meta name="application-name" content="\', escape=False)\nresponse.write(request.application)\nresponse.write(\'">\\n    <!-- Speaking of Google, don\\\'t forget to set your site up:\\n         http://google.com/webmasters -->\\n    <meta name="google-site-verification" content="">\\n    <!-- include stylesheets -->\\n    <link rel="stylesheet" href="\', escape=False)\nresponse.write(URL(\'static\',\'css/bootstrap.min.css\'))\nresponse.write(\'"/>\\n    <link rel="stylesheet" href="\', escape=False)\nresponse.write(URL(\'static\',\'css/bootstrap-theme.min.css\'))\nresponse.write(\'"/>\\n    <link rel="stylesheet" href="\', escape=False)\nresponse.write(URL(\'static\',\'css/web2py-bootstrap3.css\'))\nresponse.write(\'"/>\\n    <link rel="stylesheet" href="\', escape=False)\nresponse.write(URL(\'static\',\'css/myapp.css\'))\nresponse.write(\'"/>\\n    <link rel="stylesheet" href="\', escape=False)\nresponse.write(URL(\'static\', \'font-awesome-4.4.0/css/font-awesome.min.css\'))\nresponse.write(\'"/>\\n    <link rel="shortcut icon" href="\', escape=False)\nresponse.write(URL(\'static\',\'images/favicon.ico\'))\nresponse.write(\'" type="image/x-icon">\\n    <link rel="apple-touch-icon" href="\', escape=False)\nresponse.write(URL(\'static\',\'images/favicon.png\'))\nresponse.write(\'">\\n    <!-- All JavaScript at the bottom, except for Modernizr which enables\\n         HTML5 elements & feature detects -->\\n    <script src="\', escape=False)\nresponse.write(URL(\'static\',\'js/modernizr-2.8.3.min.js\'))\nresponse.write(\'"></script>\\n    <!--[if lt IE 9]>\\n        <script src="\', escape=False)\nresponse.write(URL(\'static\',\'js/respond-1.4.2.min.js\'))\nresponse.write(\'"></script>\\n        <![endif]-->\\n    <!-- Favicons -->\\n    \', escape=False)\nresponse.write(\'<script type="text/javascript"><!--\\n    // These variables are used by the web2py_ajax_init function in web2py_ajax.js (which is loaded below).\\n    var w2p_ajax_confirm_message = "\', escape=False)\nresponse.write(T(\'Are you sure you want to delete this object?\'))\nresponse.write(\'";\\n    var w2p_ajax_disable_with_message = "\', escape=False)\nresponse.write(T(\'Working...\'))\nresponse.write(\'";\\n    var w2p_ajax_date_format = "\', escape=False)\nresponse.write(T(\'%Y-%m-%d\'))\nresponse.write(\'";\\n    var w2p_ajax_datetime_format = "\', escape=False)\nresponse.write(T(\'%Y-%m-%d %H:%M:%S\'))\nresponse.write(\'";\\n    var ajax_error_500 = \\\'\', escape=False)\nresponse.write(T.M(\'An error occured, please [[reload %s]] the page\') % URL(args=request.args, vars=request.get_vars))\nresponse.write("\'\\n    //--></script>\\n", escape=False)\nresponse.files.insert(0,URL(\'static\',\'js/jquery.js\'))\nresponse.files.insert(1,URL(\'static\',\'css/calendar.css\'))\nresponse.files.insert(2,URL(\'static\',\'js/calendar.js\'))\nresponse.files.insert(3,URL(\'static\',\'js/web2py.js\'))\nresponse.include_meta()\nresponse.include_files()\nresponse.write(\'\\n\', escape=False)\nresponse.write(\' <!-- this includes jquery.js, calendar.js/.css and web2py.js -->\\n    \', escape=False)\nresponse.write(\'\\n    \', escape=False)\n# using sidebars need to know what sidebar you want to use\nmc0 = \'col-md-12\'\nmc1 = \'col-md-9\'\nmc2 = \'col-md-6\'\nleft_sidebar_enabled = globals().get(\'left_sidebar_enabled\', False)\nright_sidebar_enabled = globals().get(\'right_sidebar_enabled\', False)\nmiddle_column = {0: mc0, 1: mc1, 2: mc2}[\n(left_sidebar_enabled and 1 or 0)+(right_sidebar_enabled and 1 or 0)]\nresponse.write(\'\\n  </head>\\n  <body>\\n    <!--[if lt IE 8]><p class="browserupgrade">You are using an <strong>outdated</strong> browser. Please <a href="http://browsehappy.com/">upgrade your browser</a> to improve your experience.</p><![endif]-->\\n    <div class="flash alert alert-dismissable">\', escape=False)\nresponse.write(response.flash or \'\')\nresponse.write(\'</div>\\n    <!-- Navbar ======================================= -->\\n    <nav class="navbar navbar-inverse navbar-fixed-top" role="navigation">\\n      <div class="container-fluid">\\n        <div class="navbar-header">\\n          <button type="button" class="navbar-toggle" data-toggle="collapse" data-target=".navbar-collapse">\\n            <span class="sr-only">Toggle navigation</span>\\n            <span class="icon-bar"></span>\\n            <span class="icon-bar"></span>\\n            <span class="icon-bar"></span>\\n          </button>\\n          \', escape=False)\nresponse.write(response.logo or \'\')\nresponse.write(\'\\n        </div>\\n        <div class="collapse navbar-collapse navbar-ex1-collapse">\\n          <ul class="nav navbar-nav navbar-right">\\n            \', escape=False)\nresponse.write(\'auth\' in globals() and auth.navbar(\'Welcome\',mode=\'dropdown\') or \'\')\nresponse.write(\'\\n          </ul>\\n          \', escape=False)\nif response.menu:\n    response.write(\'\\n          \', escape=False)\n    response.write(MENU(response.menu, _class=\'nav navbar-nav\',li_class=\'dropdown\',ul_class=\'dropdown-menu\'))\n    response.write(\'\\n          \', escape=False)\n    pass\nresponse.write(\'\\n        </div>\\n      </div>\\n    </nav>\\n    <!-- Masthead ===================================== -->\\n    \', escape=False)\nresponse.write(\'\\n    \', escape=False)\nresponse.write(\'\\n    <!-- Main ========================================= -->\\n    <!-- Begin page content -->\\n    <div class="container-fluid main-container">\\n      \', escape=False)\nif left_sidebar_enabled:\n    response.write(\'\\n        <div class="col-md-3 left-sidebar">\\n            \', escape=False)\n    response.write(\'\\n            <h3>Left Sidebar</h3>\\n            <p></p>\\n            \', escape=False)\n    response.write(\'\\n        </div>\\n      \', escape=False)\n    pass\nresponse.write(\'\\n\\n      <div class="\', escape=False)\nresponse.write(middle_column)\nresponse.write(\'">\\n        \', escape=False)\nresponse.write(\'\\n        \', escape=False)\nresponse.write(\'\\n\\n\\n<head>\\n\\n\\n    <meta charset="utf-8">\\n    <meta http-equiv="X-UA-Compatible" content="IE=edge">\\n    <meta name="viewport" content="width=device-width, initial-scale=1">\\n    <!-- The above 3 meta tags *must* come first in the head; any other head content must come *after* these tags -->\\n    <meta name="description" content="">\\n    <meta name="author" content="">\\n    <link rel="icon" href="../../favicon.ico">\\n\\n    <title>Dashboard Template for Bootstrap</title>\\n\\n    <!-- Bootstrap core CSS -->\\n    <link href="../../dist/css/bootstrap.min.css" rel="stylesheet">\\n\\n    <!-- Custom styles for this template -->\\n    <link href="dashboard.css" rel="stylesheet">\\n\\n    <!-- Just for debugging purposes. Don\\\'t actually copy these 2 lines! -->\\n    <!--[if lt IE 9]><script src="../../assets/js/ie8-responsive-file-warning.js"></script><![endif]-->\\n    <script src="../../assets/js/ie-emulation-modes-warning.js"></script>\\n\\n    <!-- HTML5 shim and Respond.js for IE8 support of HTML5 elements and media queries -->\\n    <!--[if lt IE 9]>\\n      <script src="https://oss.maxcdn.com/html5shiv/3.7.2/html5shiv.min.js"></script>\\n      <script src="https://oss.maxcdn.com/respond/1.4.2/respond.min.js"></script>\\n    <![endif]-->\\n\\n\\n</head>\\n\\n  <body background = "background.jpg">\\n\\n    <div class="container-fluid">\\n      <div class="row">\\n        <div class="col-sm-3 col-md-2 sidebar">\\n          <ul class="nav nav-sidebar">\\n            <li class="active"><a href="#">Overview <span class="sr-only">(current)</span></a></li>\\n            <li><a href="#">Reports</a></li>\\n            <li><a href="#">Analytics</a></li>\\n            <li><a href="#">Export</a></li>\\n          </ul>\\n\\n          <ul class="nav nav-sidebar">\\n\\n\\n\\n\\n            \', escape=False)\nfor board_id in board_list:\n    response.write(\'\\n            <li> \', escape=False)\n    response.write(A(board_id[\'title\'],_href=URL(\'default\', \'show_posts\', args=[board_id[\'id\']])))\n    response.write(\'</li>\\n            \', escape=False)\n    pass\nresponse.write(\'\\n          </ul>\\n\\n          <ul class="nav nav-sidebar">\\n            <li><a href="">Nav item again</a></li>\\n            <li><a href="">One more nav</a></li>\\n            <li><a href="">Another nav item</a></li>\\n          </ul>\\n        </div>\\n        <div class="col-sm-9 col-sm-offset-3 col-md-10 col-md-offset-2 main">\\n\\n              \', escape=False)\nresponse.write(\'\\n\\n<h1>\\n\', escape=False)\nif auth.user_id != None:\n    response.write(\'\\n\\n    \', escape=False)\n    response.write(A(\'Go Back\', _class=\'btn btn-success\', _href=URL(\'default\', \'show_boards\', args=[])))\n    response.write(\'\\n\\n\', escape=False)\n    response.write(A(\'Create Post\', _class=\'btn btn-success\', _href=URL(\'default\', \'add_posts\', args=[post_board_id])))\n    response.write(\'\\n\\n\', escape=False)\nelse:\n    response.write(\'\\n\\n    \', escape=False)\n    response.write(A(\'Go Back\', _class=\'btn btn-success\', _href=URL(\'default\', \'show_boards\', args=[])))\n    response.write(\'\\n\\n\', escape=False)\n    pass\nresponse.write(\'\\n</h1>\\n\\n\\n\', escape=False)\nfor post_id in post_list:\n    response.write(\'\\n    <div class = "myboard">\\n        <span class="boardtitle">\\n        \', escape=False)\n    response.write(A(post_id[\'title\'], _href=URL(\'default\', \'post_page\', args=post_id[\'id\'])))\n    response.write(\'\\n\\n        \', escape=False)\n    if post_id.user_id == auth.user_id:\n        response.write(\'\\n        <span class = "icons">\\n        \', escape=False)\n        response.write(A(icon_pencil, _href=URL(\'default\', \'posts_edit\', args=post_id[\'id\'])))\n        response.write(\'\\n        \', escape=False)\n        response.write(A(icon_trash, _href=URL(\'default\', \'delete_post\', args=[post_id[\'id\'], post_board_id])))\n        response.write(\'\\n        </span>\\n        \', escape=False)\n        pass\n    response.write(\'\\n        </span>\\n\\n        <p>\', escape=False)\n    response.write((post_id[\'body\']))\n    response.write(\'</p>\\n\\n\\n\\n          <!-- Wrapper for slides -->\\n        \', escape=False)\n    for i in 5:\n        response.write(\'\\n            <div class="item active">\\n              <img style="height: 160px; width: 160px;" src = "\', escape=False)\n        response.write(URL(\'download\', args=post_id[\'image1\']))\n        response.write(\'"  >\\n            </div>\\n        \', escape=False)\n        pass\n    response.write(\'\\n\\n    </div>\\n\', escape=False)\n    pass\nresponse.write(\'\\n\\n        </div><!-- /.container -->\\n\\n\\n            <!-- Bootstrap core JavaScript\\n            ================================================== -->\\n\\n            <script src="https://ajax.googleapis.com/ajax/libs/jquery/1.11.3/jquery.min.js"></script>\\n            <script src="../../dist/js/bootstrap.min.js"></script>\\n            <!-- IE10 viewport hack for Surface/desktop Windows 8 bug -->\\n            <script src="../../assets/js/ie10-viewport-bug-workaround.js"></script>\\n\\n\\n\\n        </div>\\n      </div>\\n    </div>\\n  </body>\\n\\n\\n\\n\\n\\n\\n\\n\\n\', escape=False)\nresponse.write(\'\\n        \', escape=False)\nresponse.write(\'\\n      </div>\\n\\n      \', escape=False)\nif right_sidebar_enabled:\n    response.write(\'\\n        <div class="col-md-3">\\n            \', escape=False)\n    response.write(\'\\n            <h3>Right Sidebar</h3>\\n            <p></p>\\n            \', escape=False)\n    response.write(\'\\n        </div>\\n      \', escape=False)\n    pass\nresponse.write(\'\\n\\n    </div>\\n\\n    \', escape=False)\nresponse.write(\' <!-- this is default footer -->\\n    <footer class="footer">\\n      <div class="container-fluid">\\n        <div class="copyright pull-left">\', escape=False)\nresponse.write(T(\'Copyright\'))\nresponse.write(\' &#169; \', escape=False)\nresponse.write(request.now.year)\nresponse.write(\'</div>\\n          <div id="poweredBy" class="pull-right">\\n            \', escape=False)\nresponse.write(T(\'Powered by\'))\nresponse.write(\'\\n            <a href="http://www.web2py.com/">web2py</a>\\n          </div>\\n      </div>\\n    </footer>\\n    \', escape=False)\nresponse.write(\'\\n    <!-- The javascript =============================== -->\\n    <script src="\', escape=False)\nresponse.write(URL(\'static\',\'js/bootstrap.min.js\'))\nresponse.write(\'"></script>\\n    <script src="\', escape=False)\nresponse.write(URL(\'static\',\'js/web2py-bootstrap3.js\'))\nresponse.write(\'"></script>\\n    <script src="\', escape=False)\nresponse.write(URL(\'static\', \'js/ractive.min.js\'))\nresponse.write(\'"></script>\\n    \', escape=False)\nresponse.write(\'\\n    \', escape=False)\nif response.google_analytics_id:\n    response.write(\'\\n    <!-- Analytics ==================================== -->\\n    <script src="\', escape=False)\n    response.write(URL(\'static\',\'js/analytics.min.js\'))\n    response.write(\'"></script>\\n    <script type="text/javascript">\\n      analytics.initialize({\\n      \\\'Google Analytics\\\':{trackingId:\\\'\', escape=False)\n    response.write(response.google_analytics_id)\n    response.write("\'}\\n      });\\n    </script>\\n    ", escape=False)\n    pass\nresponse.write(\'\\n    <!-- Share ============================y============ -->\\n    <script src="\', escape=False)\nresponse.write(URL(\'static\',\'js/share.js\',vars=dict(static=URL(\'static\',\'images\'))))\nresponse.write(\'"></script>\\n  </body>\\n</html>\\n\', escape=False)'
p7
sS'snapshot'
p8
(dp9
S'exception'
p10
(dp11
S'__hash__'
p12
S"<method-wrapper '__hash__' of exceptions.TypeError object>"
p13
sS'__setattr__'
p14
S"<method-wrapper '__setattr__' of exceptions.TypeError object>"
p15
sS'__reduce_ex__'
p16
S'<built-in method __reduce_ex__ of exceptions.TypeError object>'
p17
sS'__getslice__'
p18
S"<method-wrapper '__getslice__' of exceptions.TypeError object>"
p19
sS'__getitem__'
p20
S"<method-wrapper '__getitem__' of exceptions.TypeError object>"
p21
sS'__setstate__'
p22
S'<built-in method __setstate__ of exceptions.TypeError object>'
p23
sS'__reduce__'
p24
S'<built-in method __reduce__ of exceptions.TypeError object>'
p25
sS'__str__'
p26
S"<method-wrapper '__str__' of exceptions.TypeError object>"
p27
sS'__format__'
p28
S'<built-in method __format__ of exceptions.TypeError object>'
p29
sS'__getattribute__'
p30
S"<method-wrapper '__getattribute__' of exceptions.TypeError object>"
p31
sS'__class__'
p32
S"<type 'exceptions.TypeError'>"
p33
sS'__unicode__'
p34
S'<built-in method __unicode__ of exceptions.TypeError object>'
p35
sS'__delattr__'
p36
S"<method-wrapper '__delattr__' of exceptions.TypeError object>"
p37
sS'__subclasshook__'
p38
S'<built-in method __subclasshook__ of type object>'
p39
sS'__repr__'
p40
S"<method-wrapper '__repr__' of exceptions.TypeError object>"
p41
sS'args'
p42
S'("\'int\' object is not iterable",)'
p43
sS'__dict__'
p44
S'{}'
p45
sS'__sizeof__'
p46
S'<built-in method __sizeof__ of exceptions.TypeError object>'
p47
sS'__doc__'
p48
S"'Inappropriate argument type.'"
p49
sS'__init__'
p50
S"<method-wrapper '__init__' of exceptions.TypeError object>"
p51
sS'__new__'
p52
S'<built-in method __new__ of type object>'
p53
ssS'evalue'
p54
S"'int' object is not iterable"
p55
sS'request'
p56
cgluon.html
XML_unpickle
p57
(S's%p\x00\x00<div><table><tr><td style="font-weight:bold;vertical-align:top;">ajax</td><td style="vertical-align:top;">:</td><td><div>False</div></td></tr><tr><td style="font-weight:bold;vertical-align:top;">application</td><td style="vertical-align:top;">:</td><td><div>HiddenSC</div></td></tr><tr><td style="font-weight:bold;vertical-align:top;">args</td><td style="vertical-align:top;">:</td><td><div><table><tr><td><div>34</div></td></tr></table></div></td></tr><tr><td style="font-weight:bold;vertical-align:top;">cid</td><td style="vertical-align:top;">:</td><td><div>None</div></td></tr><tr><td style="font-weight:bold;vertical-align:top;">client</td><td style="vertical-align:top;">:</td><td><div>127.0.0.1</div></td></tr><tr><td style="font-weight:bold;vertical-align:top;">controller</td><td style="vertical-align:top;">:</td><td><div>default</div></td></tr><tr><td style="font-weight:bold;vertical-align:top;">cookies</td><td style="vertical-align:top;">:</td><td><div><table><tr><td style="font-weight:bold;vertical-align:top;">session_id_admin</td><td style="vertical-align:top;">:</td><td><div>127.0.0.1-c07dbf34-c6e3-4a6b-9870-49c999cdd1b7<table><tr><td style="font-weight:bold;vertical-align:top;">comment</td><td style="vertical-align:top;">:</td><td><div></div></td></tr><tr><td style="font-weight:bold;vertical-align:top;">domain</td><td style="vertical-align:top;">:</td><td><div></div></td></tr><tr><td style="font-weight:bold;vertical-align:top;">expires</td><td style="vertical-align:top;">:</td><td><div></div></td></tr><tr><td style="font-weight:bold;vertical-align:top;">httponly</td><td style="vertical-align:top;">:</td><td><div></div></td></tr><tr><td style="font-weight:bold;vertical-align:top;">max-age</td><td style="vertical-align:top;">:</td><td><div></div></td></tr><tr><td style="font-weight:bold;vertical-align:top;">path</td><td style="vertical-align:top;">:</td><td><div></div></td></tr><tr><td style="font-weight:bold;vertical-align:top;">secure</td><td style="vertical-align:top;">:</td><td><div></div></td></tr><tr><td style="font-weight:bold;vertical-align:top;">version</td><td style="vertical-align:top;">:</td><td><div></div></td></tr></table></div></td></tr><tr><td style="font-weight:bold;vertical-align:top;">session_id_hiddensc</td><td style="vertical-align:top;">:</td><td><div>127.0.0.1-20b43121-c9aa-4bb1-b40a-7573dd7a9385<table><tr><td style="font-weight:bold;vertical-align:top;">comment</td><td style="vertical-align:top;">:</td><td><div></div></td></tr><tr><td style="font-weight:bold;vertical-align:top;">domain</td><td style="vertical-align:top;">:</td><td><div></div></td></tr><tr><td style="font-weight:bold;vertical-align:top;">expires</td><td style="vertical-align:top;">:</td><td><div></div></td></tr><tr><td style="font-weight:bold;vertical-align:top;">httponly</td><td style="vertical-align:top;">:</td><td><div></div></td></tr><tr><td style="font-weight:bold;vertical-align:top;">max-age</td><td style="vertical-align:top;">:</td><td><div></div></td></tr><tr><td style="font-weight:bold;vertical-align:top;">path</td><td style="vertical-align:top;">:</td><td><div></div></td></tr><tr><td style="font-weight:bold;vertical-align:top;">secure</td><td style="vertical-align:top;">:</td><td><div></div></td></tr><tr><td style="font-weight:bold;vertical-align:top;">version</td><td style="vertical-align:top;">:</td><td><div></div></td></tr></table></div></td></tr><tr><td style="font-weight:bold;vertical-align:top;">session_id_hw3</td><td style="vertical-align:top;">:</td><td><div>127.0.0.1-85d8b5dc-3636-4b08-aa53-dd7a7cfa38b6<table><tr><td style="font-weight:bold;vertical-align:top;">comment</td><td style="vertical-align:top;">:</td><td><div></div></td></tr><tr><td style="font-weight:bold;vertical-align:top;">domain</td><td style="vertical-align:top;">:</td><td><div></div></td></tr><tr><td style="font-weight:bold;vertical-align:top;">expires</td><td style="vertical-align:top;">:</td><td><div></div></td></tr><tr><td style="font-weight:bold;vertical-align:top;">httponly</td><td style="vertical-align:top;">:</td><td><div></div></td></tr><tr><td style="font-weight:bold;vertical-align:top;">max-age</td><td style="vertical-align:top;">:</td><td><div></div></td></tr><tr><td style="font-weight:bold;vertical-align:top;">path</td><td style="vertical-align:top;">:</td><td><div></div></td></tr><tr><td style="font-weight:bold;vertical-align:top;">secure</td><td style="vertical-align:top;">:</td><td><div></div></td></tr><tr><td style="font-weight:bold;vertical-align:top;">version</td><td style="vertical-align:top;">:</td><td><div></div></td></tr></table></div></td></tr><tr><td style="font-weight:bold;vertical-align:top;">session_id_hw5</td><td style="vertical-align:top;">:</td><td><div>127.0.0.1-bf723c6d-28a5-4e78-ae52-e8278c206e3b<table><tr><td style="font-weight:bold;vertical-align:top;">comment</td><td style="vertical-align:top;">:</td><td><div></div></td></tr><tr><td style="font-weight:bold;vertical-align:top;">domain</td><td style="vertical-align:top;">:</td><td><div></div></td></tr><tr><td style="font-weight:bold;vertical-align:top;">expires</td><td style="vertical-align:top;">:</td><td><div></div></td></tr><tr><td style="font-weight:bold;vertical-align:top;">httponly</td><td style="vertical-align:top;">:</td><td><div></div></td></tr><tr><td style="font-weight:bold;vertical-align:top;">max-age</td><td style="vertical-align:top;">:</td><td><div></div></td></tr><tr><td style="font-weight:bold;vertical-align:top;">path</td><td style="vertical-align:top;">:</td><td><div></div></td></tr><tr><td style="font-weight:bold;vertical-align:top;">secure</td><td style="vertical-align:top;">:</td><td><div></div></td></tr><tr><td style="font-weight:bold;vertical-align:top;">version</td><td style="vertical-align:top;">:</td><td><div></div></td></tr></table></div></td></tr><tr><td style="font-weight:bold;vertical-align:top;">session_id_welcome</td><td style="vertical-align:top;">:</td><td><div>127.0.0.1-9dd5e450-a1dd-4762-9662-004526bc9fec<table><tr><td style="font-weight:bold;vertical-align:top;">comment</td><td style="vertical-align:top;">:</td><td><div></div></td></tr><tr><td style="font-weight:bold;vertical-align:top;">domain</td><td style="vertical-align:top;">:</td><td><div></div></td></tr><tr><td style="font-weight:bold;vertical-align:top;">expires</td><td style="vertical-align:top;">:</td><td><div></div></td></tr><tr><td style="font-weight:bold;vertical-align:top;">httponly</td><td style="vertical-align:top;">:</td><td><div></div></td></tr><tr><td style="font-weight:bold;vertical-align:top;">max-age</td><td style="vertical-align:top;">:</td><td><div></div></td></tr><tr><td style="font-weight:bold;vertical-align:top;">path</td><td style="vertical-align:top;">:</td><td><div></div></td></tr><tr><td style="font-weight:bold;vertical-align:top;">secure</td><td style="vertical-align:top;">:</td><td><div></div></td></tr><tr><td style="font-weight:bold;vertical-align:top;">version</td><td style="vertical-align:top;">:</td><td><div></div></td></tr></table></div></td></tr></table></div></td></tr><tr><td style="font-weight:bold;vertical-align:top;">env</td><td style="vertical-align:top;">:</td><td><div><table><tr><td style="font-weight:bold;vertical-align:top;">HTTP_ACCEPT</td><td style="vertical-align:top;">:</td><td><div>text/html,application/xhtml+xml,application/xml;q=0.9,image/webp,*/*;q=0.8</div></td></tr><tr><td style="font-weight:bold;vertical-align:top;">HTTP_ACCEPT_ENCODING</td><td style="vertical-align:top;">:</td><td><div>gzip, deflate, sdch</div></td></tr><tr><td style="font-weight:bold;vertical-align:top;">HTTP_ACCEPT_LANGUAGE</td><td style="vertical-align:top;">:</td><td><div>en-US,en;q=0.8</div></td></tr><tr><td style="font-weight:bold;vertical-align:top;">HTTP_CACHE_CONTROL</td><td style="vertical-align:top;">:</td><td><div>max-age=0</div></td></tr><tr><td style="font-weight:bold;vertical-align:top;">HTTP_CONNECTION</td><td style="vertical-align:top;">:</td><td><div>keep-alive</div></td></tr><tr><td style="font-weight:bold;vertical-align:top;">HTTP_COOKIE</td><td style="vertical-align:top;">:</td><td><div>_ym_uid=1446504907970760301; _ym_isad=1; __lfcc=1; session_id_hw3=127.0.0.1-85d8b5dc-3636-4b08-aa53-dd7a7cfa38b6; session_id_hw5=127.0.0.1-bf723c6d-28a5-4e78-ae52-e8278c206e3b; session_id_welcome=127.0.0.1-9dd5e450-a1dd-4762-9662-004526bc9fec; session_id_admin=127.0.0.1-c07dbf34-c6e3-4a6b-9870-49c999cdd1b7; session_id_hiddensc=127.0.0.1-20b43121-c9aa-4bb1-b40a-7573dd7a9385</div></td></tr><tr><td style="font-weight:bold;vertical-align:top;">HTTP_HOST</td><td style="vertical-align:top;">:</td><td><div>127.0.0.1:8000</div></td></tr><tr><td style="font-weight:bold;vertical-align:top;">HTTP_REFERER</td><td style="vertical-align:top;">:</td><td><div>http://127.0.0.1:8000/HiddenSC/default/add_posts/34</div></td></tr><tr><td style="font-weight:bold;vertical-align:top;">HTTP_UPGRADE_INSECURE_REQUESTS</td><td style="vertical-align:top;">:</td><td><div>1</div></td></tr><tr><td style="font-weight:bold;vertical-align:top;">HTTP_USER_AGENT</td><td style="vertical-align:top;">:</td><td><div>Mozilla/5.0 (Windows NT 10.0; WOW64) AppleWebKit/537.36 (KHTML, like Gecko) Chrome/46.0.2490.86 Safari/537.36</div></td></tr><tr><td style="font-weight:bold;vertical-align:top;">PATH_INFO</td><td style="vertical-align:top;">:</td><td><div>/HiddenSC/default/show_posts/34</div></td></tr><tr><td style="font-weight:bold;vertical-align:top;">QUERY_STRING</td><td style="vertical-align:top;">:</td><td><div></div></td></tr><tr><td style="font-weight:bold;vertical-align:top;">REMOTE_ADDR</td><td style="vertical-align:top;">:</td><td><div>127.0.0.1</div></td></tr><tr><td style="font-weight:bold;vertical-align:top;">REMOTE_PORT</td><td style="vertical-align:top;">:</td><td><div>52259</div></td></tr><tr><td style="font-weight:bold;vertical-align:top;">REQUEST_METHOD</td><td style="vertical-align:top;">:</td><td><div>GET</div></td></tr><tr><td style="font-weight:bold;vertical-align:top;">SCRIPT_NAME</td><td style="vertical-align:top;">:</td><td><div></div></td></tr><tr><td style="font-weight:bold;vertical-align:top;">SERVER_NAME</td><td style="vertical-align:top;">:</td><td><div>bryce</div></td></tr><tr><td style="font-weight:bold;vertical-align:top;">SERVER_PORT</td><td style="vertical-align:top;">:</td><td><div>8000</div></td></tr><tr><td style="font-weight:bold;vertical-align:top;">SERVER_PROTOCOL</td><td style="vertical-align:top;">:</td><td><div>HTTP/1.1</div></td></tr><tr><td style="font-weight:bold;vertical-align:top;">SERVER_SOFTWARE</td><td style="vertical-align:top;">:</td><td><div>Rocket 1.2.6</div></td></tr><tr><td style="font-weight:bold;vertical-align:top;">app_folders</td><td style="vertical-align:top;">:</td><td><div>set([&#x27;C:\\\\Users\\\\bryce\\\\Desktop\\\\web2py\\\\applications\\\\admin\\\\&#x27;, &#x27;C:\\\\Users\\\\bryce\\\\Desktop\\\\web2py\\\\applications\\\\welcome\\\\&#x27;, &#x27;C:\\\\Users\\\\bryce\\\\Desktop\\\\web2py\\\\applications\\\\HiddenSC\\\\&#x27;])</div></td></tr><tr><td style="font-weight:bold;vertical-align:top;">applications_parent</td><td style="vertical-align:top;">:</td><td><div>C:\\Users\\bryce\\Desktop\\web2py</div></td></tr><tr><td style="font-weight:bold;vertical-align:top;">cmd_args</td><td style="vertical-align:top;">:</td><td><div><table></table></div></td></tr><tr><td style="font-weight:bold;vertical-align:top;">cmd_options</td><td style="vertical-align:top;">:</td><td><div>&lt;Values at 0x3317a58: {&#x27;verbose&#x27;: False, &#x27;ip&#x27;: &#x27;127.0.0.1&#x27;, &#x27;debuglevel&#x27;: 30, &#x27;with_scheduler&#x27;: False, &#x27;ips&#x27;: [&#x27;fe80::f9e6:f222:2d98:bdbc%11&#x27;, &#x27;fe80::a81b:78a:7bdb:dbe2%9&#x27;, &#x27;169.233.201.135&#x27;, &#x27;192.168.135.1&#x27;, &#x27;fe80::dea:2f5f:ca5f:49d8%3&#x27;, &#x27;fe80::200:5efe:169.233.201.135%15&#x27;, &#x27;fe80::496c:8fc9:766:d900%4&#x27;, &#x27;169.254.123.144&#x27;, &#x27;192.168.22.1&#x27;, &#x27;fe80::b53b:7062:8784:2062%5&#x27;, &#x27;2002:a9e9:c987::a9e9:c987&#x27;, &#x27;192.168.56.1&#x27;], &#x27;shutdown_timeout&#x27;: 5, &#x27;taskbar&#x27;: False, &#x27;with_coverage&#x27;: False, &#x27;scheduler_groups&#x27;: None, &#x27;port&#x27;: 8000, &#x27;maxthreads&#x27;: None, &#x27;softcron&#x27;: False, &#x27;server_name&#x27;: &#x27;bryce&#x27;, &#x27;bpython&#x27;: False, &#x27;nogui&#x27;: False, &#x27;pid_filename&#x27;: &#x27;httpserver.pid&#x27;, &#x27;print_errors&#x27;: False, &#x27;extcron&#x27;: False, &#x27;runcron&#x27;: False, &#x27;run_system_tests&#x27;: False, &#x27;test&#x27;: None, &#x27;folder&#x27;: &#x27;C:\\\\Users\\\\bryce\\\\Desktop\\\\web2py&#x27;, &#x27;config&#x27;: &#x27;&#x27;, &#x27;minthreads&#x27;: None, &#x27;shell&#x27;: None, &#x27;run&#x27;: &#x27;&#x27;, &#x27;log_filename&#x27;: &#x27;httpserver.log&#x27;, &#x27;profiler_dir&#x27;: None, &#x27;args&#x27;: [&#x27;&#x27;], &#x27;socket_timeout&#x27;: 5, &#x27;ssl_ca_certificate&#x27;: None, &#x27;scheduler&#x27;: None, &#x27;interfaces&#x27;: None, &#x27;ssl_private_key&#x27;: &#x27;&#x27;, &#x27;gae&#x27;: None, &#x27;password&#x27;: &#x27;&lt;ask&gt;&#x27;, &#x27;request_queue_size&#x27;: 5, &#x27;ssl_certificate&#x27;: &#x27;&#x27;, &#x27;cronjob&#x27;: False, &#x27;numthreads&#x27;: None, &#x27;quiet&#x27;: False, &#x27;import_models&#x27;: False, &#x27;timeout&#x27;: 10, &#x27;plain&#x27;: False, &#x27;nobanner&#x27;: False}&gt;</div></td></tr><tr><td style="font-weight:bold;vertical-align:top;">db_sessions</td><td style="vertical-align:top;">:</td><td><div>set([])</div></td></tr><tr><td style="font-weight:bold;vertical-align:top;">debugging</td><td style="vertical-align:top;">:</td><td><div>False</div></td></tr><tr><td style="font-weight:bold;vertical-align:top;">gluon_parent</td><td style="vertical-align:top;">:</td><td><div>C:\\Users\\bryce\\Desktop\\web2py</div></td></tr><tr><td style="font-weight:bold;vertical-align:top;">http_accept</td><td style="vertical-align:top;">:</td><td><div>text/html,application/xhtml+xml,application/xml;q=0.9,image/webp,*/*;q=0.8</div></td></tr><tr><td style="font-weight:bold;vertical-align:top;">http_accept_encoding</td><td style="vertical-align:top;">:</td><td><div>gzip, deflate, sdch</div></td></tr><tr><td style="font-weight:bold;vertical-align:top;">http_accept_language</td><td style="vertical-align:top;">:</td><td><div>en-US,en;q=0.8</div></td></tr><tr><td style="font-weight:bold;vertical-align:top;">http_cache_control</td><td style="vertical-align:top;">:</td><td><div>max-age=0</div></td></tr><tr><td style="font-weight:bold;vertical-align:top;">http_connection</td><td style="vertical-align:top;">:</td><td><div>keep-alive</div></td></tr><tr><td style="font-weight:bold;vertical-align:top;">http_cookie</td><td style="vertical-align:top;">:</td><td><div>_ym_uid=1446504907970760301; _ym_isad=1; __lfcc=1; session_id_hw3=127.0.0.1-85d8b5dc-3636-4b08-aa53-dd7a7cfa38b6; session_id_hw5=127.0.0.1-bf723c6d-28a5-4e78-ae52-e8278c206e3b; session_id_welcome=127.0.0.1-9dd5e450-a1dd-4762-9662-004526bc9fec; session_id_admin=127.0.0.1-c07dbf34-c6e3-4a6b-9870-49c999cdd1b7; session_id_hiddensc=127.0.0.1-20b43121-c9aa-4bb1-b40a-7573dd7a9385</div></td></tr><tr><td style="font-weight:bold;vertical-align:top;">http_host</td><td style="vertical-align:top;">:</td><td><div>127.0.0.1:8000</div></td></tr><tr><td style="font-weight:bold;vertical-align:top;">http_referer</td><td style="vertical-align:top;">:</td><td><div>http://127.0.0.1:8000/HiddenSC/default/add_posts/34</div></td></tr><tr><td style="font-weight:bold;vertical-align:top;">http_upgrade_insecure_requests</td><td style="vertical-align:top;">:</td><td><div>1</div></td></tr><tr><td style="font-weight:bold;vertical-align:top;">http_user_agent</td><td style="vertical-align:top;">:</td><td><div>Mozilla/5.0 (Windows NT 10.0; WOW64) AppleWebKit/537.36 (KHTML, like Gecko) Chrome/46.0.2490.86 Safari/537.36</div></td></tr><tr><td style="font-weight:bold;vertical-align:top;">is_jython</td><td style="vertical-align:top;">:</td><td><div>False</div></td></tr><tr><td style="font-weight:bold;vertical-align:top;">is_pypy</td><td style="vertical-align:top;">:</td><td><div>False</div></td></tr><tr><td style="font-weight:bold;vertical-align:top;">is_source</td><td style="vertical-align:top;">:</td><td><div>True</div></td></tr><tr><td style="font-weight:bold;vertical-align:top;">local_hosts</td><td style="vertical-align:top;">:</td><td><div><table><tr><td><div>fe80::f9e6:f222:2d98:bdbc%11</div></td></tr><tr><td><div>fe80::a81b:78a:7bdb:dbe2%9</div></td></tr><tr><td><div>169.233.201.135</div></td></tr><tr><td><div>bryce</div></td></tr><tr><td><div>192.168.22.1</div></td></tr><tr><td><div>192.168.135.1</div></td></tr><tr><td><div>::ffff:127.0.0.1</div></td></tr><tr><td><div>::1</div></td></tr><tr><td><div>fe80::200:5efe:169.233.201.135%15</div></td></tr><tr><td><div>fe80::496c:8fc9:766:d900%4</div></td></tr><tr><td><div>169.254.123.144</div></td></tr><tr><td><div>fe80::dea:2f5f:ca5f:49d8%3</div></td></tr><tr><td><div>fe80::b53b:7062:8784:2062%5</div></td></tr><tr><td><div>2002:a9e9:c987::a9e9:c987</div></td></tr><tr><td><div>127.0.0.1</div></td></tr><tr><td><div>192.168.56.1</div></td></tr></table></div></td></tr><tr><td style="font-weight:bold;vertical-align:top;">path_info</td><td style="vertical-align:top;">:</td><td><div>/HiddenSC/default/show_posts/34</div></td></tr><tr><td style="font-weight:bold;vertical-align:top;">query_string</td><td style="vertical-align:top;">:</td><td><div></div></td></tr><tr><td style="font-weight:bold;vertical-align:top;">remote_addr</td><td style="vertical-align:top;">:</td><td><div>127.0.0.1</div></td></tr><tr><td style="font-weight:bold;vertical-align:top;">remote_port</td><td style="vertical-align:top;">:</td><td><div>52259</div></td></tr><tr><td style="font-weight:bold;vertical-align:top;">request_method</td><td style="vertical-align:top;">:</td><td><div>GET</div></td></tr><tr><td style="font-weight:bold;vertical-align:top;">request_uri</td><td style="vertical-align:top;">:</td><td><div>/HiddenSC/default/show_posts/34</div></td></tr><tr><td style="font-weight:bold;vertical-align:top;">script_name</td><td style="vertical-align:top;">:</td><td><div></div></td></tr><tr><td style="font-weight:bold;vertical-align:top;">server_name</td><td style="vertical-align:top;">:</td><td><div>bryce</div></td></tr><tr><td style="font-weight:bold;vertical-align:top;">server_port</td><td style="vertical-align:top;">:</td><td><div>8000</div></td></tr><tr><td style="font-weight:bold;vertical-align:top;">server_protocol</td><td style="vertical-align:top;">:</td><td><div>HTTP/1.1</div></td></tr><tr><td style="font-weight:bold;vertical-align:top;">server_software</td><td style="vertical-align:top;">:</td><td><div>Rocket 1.2.6</div></td></tr><tr><td style="font-weight:bold;vertical-align:top;">web2py_path</td><td style="vertical-align:top;">:</td><td><div>C:\\Users\\bryce\\Desktop\\web2py</div></td></tr><tr><td style="font-weight:bold;vertical-align:top;">web2py_version</td><td style="vertical-align:top;">:</td><td><div>2.12.3-stable+timestamp.2015.08.19.00.18.03</div></td></tr><tr><td style="font-weight:bold;vertical-align:top;">wsgi.errors</td><td style="vertical-align:top;">:</td><td><div>&lt;open file &#x27;&lt;stderr&gt;&#x27;, mode &#x27;w&#x27; at 0x0213D0D0&gt;</div></td></tr><tr><td style="font-weight:bold;vertical-align:top;">wsgi.file_wrapper</td><td style="vertical-align:top;">:</td><td><div>&lt;class wsgiref.util.FileWrapper at 0x03299030&gt;</div></td></tr><tr><td style="font-weight:bold;vertical-align:top;">wsgi.input</td><td style="vertical-align:top;">:</td><td><div>&lt;socket._fileobject object at 0x0930D830&gt;</div></td></tr><tr><td style="font-weight:bold;vertical-align:top;">wsgi.multiprocess</td><td style="vertical-align:top;">:</td><td><div>False</div></td></tr><tr><td style="font-weight:bold;vertical-align:top;">wsgi.multithread</td><td style="vertical-align:top;">:</td><td><div>True</div></td></tr><tr><td style="font-weight:bold;vertical-align:top;">wsgi.run_once</td><td style="vertical-align:top;">:</td><td><div>False</div></td></tr><tr><td style="font-weight:bold;vertical-align:top;">wsgi.url_scheme</td><td style="vertical-align:top;">:</td><td><div>http</div></td></tr><tr><td style="font-weight:bold;vertical-align:top;">wsgi.version</td><td style="vertical-align:top;">:</td><td><div><table><tr><td><div>1</div></td></tr><tr><td><div>0</div></td></tr></table></div></td></tr><tr><td style="font-weight:bold;vertical-align:top;">wsgi_errors</td><td style="vertical-align:top;">:</td><td><div>&lt;open file &#x27;&lt;stderr&gt;&#x27;, mode &#x27;w&#x27; at 0x0213D0D0&gt;</div></td></tr><tr><td style="font-weight:bold;vertical-align:top;">wsgi_file_wrapper</td><td style="vertical-align:top;">:</td><td><div>&lt;class wsgiref.util.FileWrapper at 0x03299030&gt;</div></td></tr><tr><td style="font-weight:bold;vertical-align:top;">wsgi_input</td><td style="vertical-align:top;">:</td><td><div>&lt;socket._fileobject object at 0x0930D830&gt;</div></td></tr><tr><td style="font-weight:bold;vertical-align:top;">wsgi_multiprocess</td><td style="vertical-align:top;">:</td><td><div>False</div></td></tr><tr><td style="font-weight:bold;vertical-align:top;">wsgi_multithread</td><td style="vertical-align:top;">:</td><td><div>True</div></td></tr><tr><td style="font-weight:bold;vertical-align:top;">wsgi_run_once</td><td style="vertical-align:top;">:</td><td><div>False</div></td></tr><tr><td style="font-weight:bold;vertical-align:top;">wsgi_url_scheme</td><td style="vertical-align:top;">:</td><td><div>http</div></td></tr><tr><td style="font-weight:bold;vertical-align:top;">wsgi_version</td><td style="vertical-align:top;">:</td><td><div><table><tr><td><div>1</div></td></tr><tr><td><div>0</div></td></tr></table></div></td></tr></table></div></td></tr><tr><td style="font-weight:bold;vertical-align:top;">extension</td><td style="vertical-align:top;">:</td><td><div>html</div></td></tr><tr><td style="font-weight:bold;vertical-align:top;">folder</td><td style="vertical-align:top;">:</td><td><div>C:\\Users\\bryce\\Desktop\\web2py\\applications\\HiddenSC\\</div></td></tr><tr><td style="font-weight:bold;vertical-align:top;">function</td><td style="vertical-align:top;">:</td><td><div>show_posts</div></td></tr><tr><td style="font-weight:bold;vertical-align:top;">global_settings</td><td style="vertical-align:top;">:</td><td><div><table><tr><td style="font-weight:bold;vertical-align:top;">app_folders</td><td style="vertical-align:top;">:</td><td><div>set([&#x27;C:\\\\Users\\\\bryce\\\\Desktop\\\\web2py\\\\applications\\\\admin\\\\&#x27;, &#x27;C:\\\\Users\\\\bryce\\\\Desktop\\\\web2py\\\\applications\\\\welcome\\\\&#x27;, &#x27;C:\\\\Users\\\\bryce\\\\Desktop\\\\web2py\\\\applications\\\\HiddenSC\\\\&#x27;])</div></td></tr><tr><td style="font-weight:bold;vertical-align:top;">applications_parent</td><td style="vertical-align:top;">:</td><td><div>C:\\Users\\bryce\\Desktop\\web2py</div></td></tr><tr><td style="font-weight:bold;vertical-align:top;">cmd_args</td><td style="vertical-align:top;">:</td><td><div><table></table></div></td></tr><tr><td style="font-weight:bold;vertical-align:top;">cmd_options</td><td style="vertical-align:top;">:</td><td><div>&lt;Values at 0x3317a58: {&#x27;verbose&#x27;: False, &#x27;ip&#x27;: &#x27;127.0.0.1&#x27;, &#x27;debuglevel&#x27;: 30, &#x27;with_scheduler&#x27;: False, &#x27;ips&#x27;: [&#x27;fe80::f9e6:f222:2d98:bdbc%11&#x27;, &#x27;fe80::a81b:78a:7bdb:dbe2%9&#x27;, &#x27;169.233.201.135&#x27;, &#x27;192.168.135.1&#x27;, &#x27;fe80::dea:2f5f:ca5f:49d8%3&#x27;, &#x27;fe80::200:5efe:169.233.201.135%15&#x27;, &#x27;fe80::496c:8fc9:766:d900%4&#x27;, &#x27;169.254.123.144&#x27;, &#x27;192.168.22.1&#x27;, &#x27;fe80::b53b:7062:8784:2062%5&#x27;, &#x27;2002:a9e9:c987::a9e9:c987&#x27;, &#x27;192.168.56.1&#x27;], &#x27;shutdown_timeout&#x27;: 5, &#x27;taskbar&#x27;: False, &#x27;with_coverage&#x27;: False, &#x27;scheduler_groups&#x27;: None, &#x27;port&#x27;: 8000, &#x27;maxthreads&#x27;: None, &#x27;softcron&#x27;: False, &#x27;server_name&#x27;: &#x27;bryce&#x27;, &#x27;bpython&#x27;: False, &#x27;nogui&#x27;: False, &#x27;pid_filename&#x27;: &#x27;httpserver.pid&#x27;, &#x27;print_errors&#x27;: False, &#x27;extcron&#x27;: False, &#x27;runcron&#x27;: False, &#x27;run_system_tests&#x27;: False, &#x27;test&#x27;: None, &#x27;folder&#x27;: &#x27;C:\\\\Users\\\\bryce\\\\Desktop\\\\web2py&#x27;, &#x27;config&#x27;: &#x27;&#x27;, &#x27;minthreads&#x27;: None, &#x27;shell&#x27;: None, &#x27;run&#x27;: &#x27;&#x27;, &#x27;log_filename&#x27;: &#x27;httpserver.log&#x27;, &#x27;profiler_dir&#x27;: None, &#x27;args&#x27;: [&#x27;&#x27;], &#x27;socket_timeout&#x27;: 5, &#x27;ssl_ca_certificate&#x27;: None, &#x27;scheduler&#x27;: None, &#x27;interfaces&#x27;: None, &#x27;ssl_private_key&#x27;: &#x27;&#x27;, &#x27;gae&#x27;: None, &#x27;password&#x27;: &#x27;&lt;ask&gt;&#x27;, &#x27;request_queue_size&#x27;: 5, &#x27;ssl_certificate&#x27;: &#x27;&#x27;, &#x27;cronjob&#x27;: False, &#x27;numthreads&#x27;: None, &#x27;quiet&#x27;: False, &#x27;import_models&#x27;: False, &#x27;timeout&#x27;: 10, &#x27;plain&#x27;: False, &#x27;nobanner&#x27;: False}&gt;</div></td></tr><tr><td style="font-weight:bold;vertical-align:top;">db_sessions</td><td style="vertical-align:top;">:</td><td><div>set([])</div></td></tr><tr><td style="font-weight:bold;vertical-align:top;">debugging</td><td style="vertical-align:top;">:</td><td><div>False</div></td></tr><tr><td style="font-weight:bold;vertical-align:top;">gluon_parent</td><td style="vertical-align:top;">:</td><td><div>C:\\Users\\bryce\\Desktop\\web2py</div></td></tr><tr><td style="font-weight:bold;vertical-align:top;">is_jython</td><td style="vertical-align:top;">:</td><td><div>False</div></td></tr><tr><td style="font-weight:bold;vertical-align:top;">is_pypy</td><td style="vertical-align:top;">:</td><td><div>False</div></td></tr><tr><td style="font-weight:bold;vertical-align:top;">is_source</td><td style="vertical-align:top;">:</td><td><div>True</div></td></tr><tr><td style="font-weight:bold;vertical-align:top;">local_hosts</td><td style="vertical-align:top;">:</td><td><div><table><tr><td><div>fe80::f9e6:f222:2d98:bdbc%11</div></td></tr><tr><td><div>fe80::a81b:78a:7bdb:dbe2%9</div></td></tr><tr><td><div>169.233.201.135</div></td></tr><tr><td><div>bryce</div></td></tr><tr><td><div>192.168.22.1</div></td></tr><tr><td><div>192.168.135.1</div></td></tr><tr><td><div>::ffff:127.0.0.1</div></td></tr><tr><td><div>::1</div></td></tr><tr><td><div>fe80::200:5efe:169.233.201.135%15</div></td></tr><tr><td><div>fe80::496c:8fc9:766:d900%4</div></td></tr><tr><td><div>169.254.123.144</div></td></tr><tr><td><div>fe80::dea:2f5f:ca5f:49d8%3</div></td></tr><tr><td><div>fe80::b53b:7062:8784:2062%5</div></td></tr><tr><td><div>2002:a9e9:c987::a9e9:c987</div></td></tr><tr><td><div>127.0.0.1</div></td></tr><tr><td><div>192.168.56.1</div></td></tr></table></div></td></tr><tr><td style="font-weight:bold;vertical-align:top;">web2py_version</td><td style="vertical-align:top;">:</td><td><div>2.12.3-stable+timestamp.2015.08.19.00.18.03</div></td></tr></table></div></td></tr><tr><td style="font-weight:bold;vertical-align:top;">is_https</td><td style="vertical-align:top;">:</td><td><div>False</div></td></tr><tr><td style="font-weight:bold;vertical-align:top;">is_local</td><td style="vertical-align:top;">:</td><td><div>True</div></td></tr><tr><td style="font-weight:bold;vertical-align:top;">is_restful</td><td style="vertical-align:top;">:</td><td><div>False</div></td></tr><tr><td style="font-weight:bold;vertical-align:top;">is_sheduler</td><td style="vertical-align:top;">:</td><td><div>None</div></td></tr><tr><td style="font-weight:bold;vertical-align:top;">is_shell</td><td style="vertical-align:top;">:</td><td><div>None</div></td></tr><tr><td style="font-weight:bold;vertical-align:top;">now</td><td style="vertical-align:top;">:</td><td><div>datetime.datetime(2015, 11, 30, 19, 13, 4, 19000)</div></td></tr><tr><td style="font-weight:bold;vertical-align:top;">raw_args</td><td style="vertical-align:top;">:</td><td><div>34</div></td></tr><tr><td style="font-weight:bold;vertical-align:top;">raw_extension</td><td style="vertical-align:top;">:</td><td><div>None</div></td></tr><tr><td style="font-weight:bold;vertical-align:top;">url</td><td style="vertical-align:top;">:</td><td><div>/HiddenSC/default/show_posts/34</div></td></tr><tr><td style="font-weight:bold;vertical-align:top;">utcnow</td><td style="vertical-align:top;">:</td><td><div>datetime.datetime(2015, 12, 1, 3, 13, 4, 19000)</div></td></tr><tr><td style="font-weight:bold;vertical-align:top;">wsgi</td><td style="vertical-align:top;">:</td><td><div>&lt;gluon.main.LazyWSGI object at 0x09660F10&gt;</div></td></tr></table></div>'
tRp58
sS'frames'
p59
(lp60
(dp61
S'file'
p62
S'C:\\Users\\bryce\\Desktop\\web2py\\gluon\\restricted.py'
p63
sS'dump'
p64
(dp65
S'environment'
p66
S"{'A': <class 'gluon.html.A'>, 'ANY_OF': <class 'gluon.validators.ANY_OF'>, 'ASSIGNJS': <function ASSIGNJS>, 'AppConfig': <function AppConfig>, 'Auth': <class 'gluon.tools.Auth'>, 'B': <class 'gluon.html.B'>, 'BEAUTIFY': <class 'gluon.html.BEAUTIFY'>, 'BODY': <class 'gluon.html.BODY'>, 'BR': <class 'gluon.html.BR'>, 'BUTTON': <class 'gluon.html.BUTTON'>, ...}"
p67
sS'ccode'
p68
S'<code object <module> at 0995CEC0, file "C:\\User...\\HiddenSC\\views\\default/show_posts.html", line 1>'
p69
ssS'lnum'
p70
I227
sS'lines'
p71
(dp72
I224
S'            ccode = code'
p73
sI225
S'        else:'
p74
sI226
S'            ccode = compile2(code, layer)'
p75
sI227
S'        exec ccode in environment'
p76
sI228
S'    except HTTP:'
p77
sI229
S'        raise'
p78
sI230
S'    except RestrictedError:'
p79
sI231
S'        # do not encapsulate (obfuscate) the original RestrictedError'
p80
sI222
S'    try:'
p81
sI223
S'        if isinstance(code, types.CodeType):'
p82
ssS'call'
p83
S'(code=\'response.write(\\\'<!DOCTYPE html>\\\\n<!--[if (gt IE ..."></script>\\\\n  </body>\\\\n</html>\\\\n\\\', escape=False)\', environment={\'A\': <class \'gluon.html.A\'>, \'ANY_OF\': <class \'gluon.validators.ANY_OF\'>, \'ASSIGNJS\': <function ASSIGNJS>, \'AppConfig\': <function AppConfig>, \'Auth\': <class \'gluon.tools.Auth\'>, \'B\': <class \'gluon.html.B\'>, \'BEAUTIFY\': <class \'gluon.html.BEAUTIFY\'>, \'BODY\': <class \'gluon.html.BODY\'>, \'BR\': <class \'gluon.html.BR\'>, \'BUTTON\': <class \'gluon.html.BUTTON\'>, ...}, layer=r\'C:\\Users\\bryce\\Desktop\\web2py\\applications\\HiddenSC\\views\\default/show_posts.html\')'
p84
sS'func'
p85
S'restricted'
p86
sa(dp87
g62
S'C:\\Users\\bryce\\Desktop\\web2py\\applications\\HiddenSC\\views\\default\\show_posts.html'
p88
sg64
(dp89
S'load'
p90
S'undefined'
p91
sS'end'
p92
g91
sS'faster'
p93
g91
sS'of'
p94
g91
sS'Placed'
p95
g91
sS'so'
p96
g91
sS'at'
p97
g91
sS'the'
p98
g91
sS'document'
p99
g91
sS'pages'
p100
g91
ssg70
I114
sg71
(dp101
I105
S'        response.write(\'\\n        <span class = "icons">\\n        \', escape=False)'
p102
sI106
S"        response.write(A(icon_pencil, _href=URL('default', 'posts_edit', args=post_id['id'])))"
p103
sI107
S"        response.write('\\n        ', escape=False)"
p104
sI108
S"        response.write(A(icon_trash, _href=URL('default', 'delete_post', args=[post_id['id'], post_board_id])))"
p105
sI109
S"        response.write('\\n        </span>\\n        ', escape=False)"
p106
sI110
S'        pass'
p107
sI111
S"    response.write('\\n        </span>\\n\\n        <p>', escape=False)"
p108
sI112
S"    response.write((post_id['body']))"
p109
sI113
S"    response.write('</p>\\n\\n\\n\\n          <!-- Wrapper for slides -->\\n        ', escape=False)"
p110
sI114
S'    for i in 5:'
p111
sI115
S'        response.write(\'\\n            <div class="item active">\\n              <img style="height: 160px; width: 160px;" src = "\', escape=False)'
p112
sI116
S"        response.write(URL('download', args=post_id['image1']))"
p113
sI117
S'        response.write(\'"  >\\n            </div>\\n        \', escape=False)'
p114
sI118
S'        pass'
p115
sI119
S"    response.write('\\n\\n    </div>\\n', escape=False)"
p116
sI120
S'    pass'
p117
sI121
S'response.write(\'\\n\\n        </div><!-- /.container -->\\n\\n\\n            <!-- Bootstrap core JavaScript\\n            ================================================== -->\\n\\n            <script src="https://ajax.googleapis.com/ajax/libs/jquery/1.11.3/jquery.min.js"></script>\\n            <script src="../../dist/js/bootstrap.min.js"></script>\\n            <!-- IE10 viewport hack for Surface/desktop Windows 8 bug -->\\n            <script src="../../assets/js/ie10-viewport-bug-workaround.js"></script>\\n\\n\\n\\n        </div>\\n      </div>\\n    </div>\\n  </body>\\n\\n\\n\\n\\n\\n\\n\\n\\n\', escape=False)'
p118
sI122
S"response.write('\\n        ', escape=False)"
p119
sI123
S"response.write('\\n      </div>\\n\\n      ', escape=False)"
p120
sI124
S'if right_sidebar_enabled:'
p121
ssg83
S'()'
p122
sg85
S'<module>'
p123
sasS'pyver'
p124
S'Python 2.7.10: C:\\Python27\\python.exe (prefix: C:\\Python27)'
p125
sS'session'
p126
g57
(S's\xeb\x08\x00\x00<div><table><tr><td style="font-weight:bold;vertical-align:top;">auth</td><td style="vertical-align:top;">:</td><td><div><table><tr><td style="font-weight:bold;vertical-align:top;">expiration</td><td style="vertical-align:top;">:</td><td><div>3600</div></td></tr><tr><td style="font-weight:bold;vertical-align:top;">hmac_key</td><td style="vertical-align:top;">:</td><td><div>053215e8-5b65-4718-a23c-bee5407ba877</div></td></tr><tr><td style="font-weight:bold;vertical-align:top;">last_visit</td><td style="vertical-align:top;">:</td><td><div>datetime.datetime(2015, 11, 30, 19, 7, 28, 842000)</div></td></tr><tr><td style="font-weight:bold;vertical-align:top;">remember_me</td><td style="vertical-align:top;">:</td><td><div>False</div></td></tr><tr><td style="font-weight:bold;vertical-align:top;">user</td><td style="vertical-align:top;">:</td><td><div><table><tr><td style="font-weight:bold;vertical-align:top;">email</td><td style="vertical-align:top;">:</td><td><div>painebryce@gmail.com</div></td></tr><tr><td style="font-weight:bold;vertical-align:top;">first_name</td><td style="vertical-align:top;">:</td><td><div>bryce</div></td></tr><tr><td style="font-weight:bold;vertical-align:top;">id</td><td style="vertical-align:top;">:</td><td><div>2L</div></td></tr><tr><td style="font-weight:bold;vertical-align:top;">last_name</td><td style="vertical-align:top;">:</td><td><div>paine</div></td></tr><tr><td style="font-weight:bold;vertical-align:top;">registration_id</td><td style="vertical-align:top;">:</td><td><div></div></td></tr><tr><td style="font-weight:bold;vertical-align:top;">registration_key</td><td style="vertical-align:top;">:</td><td><div></div></td></tr><tr><td style="font-weight:bold;vertical-align:top;">reset_password_key</td><td style="vertical-align:top;">:</td><td><div></div></td></tr></table></div></td></tr><tr><td style="font-weight:bold;vertical-align:top;">user_groups</td><td style="vertical-align:top;">:</td><td><div><table><tr><td style="font-weight:bold;vertical-align:top;">2</td><td style="vertical-align:top;">:</td><td><div>user_2</div></td></tr></table></div></td></tr></table></div></td></tr><tr><td style="font-weight:bold;vertical-align:top;">flash</td><td style="vertical-align:top;">:</td><td><div>None</div></td></tr></table></div>'
tRp127
sS'etype'
p128
S"<type 'exceptions.TypeError'>"
p129
sS'date'
p130
S'Mon Nov 30 19:13:04 2015'
p131
sS'response'
p132
g57
(S's\xa7@\x00\x00<div><table><tr><td style="font-weight:bold;vertical-align:top;">body</td><td style="vertical-align:top;">:</td><td><div>&lt;cStringIO.StringO object at 0x09660A20&gt;</div></td></tr><tr><td style="font-weight:bold;vertical-align:top;">cookies</td><td style="vertical-align:top;">:</td><td><div><table><tr><td style="font-weight:bold;vertical-align:top;">session_id_hiddensc</td><td style="vertical-align:top;">:</td><td><div>127.0.0.1-20b43121-c9aa-4bb1-b40a-7573dd7a9385<table><tr><td style="font-weight:bold;vertical-align:top;">comment</td><td style="vertical-align:top;">:</td><td><div></div></td></tr><tr><td style="font-weight:bold;vertical-align:top;">domain</td><td style="vertical-align:top;">:</td><td><div></div></td></tr><tr><td style="font-weight:bold;vertical-align:top;">expires</td><td style="vertical-align:top;">:</td><td><div></div></td></tr><tr><td style="font-weight:bold;vertical-align:top;">httponly</td><td style="vertical-align:top;">:</td><td><div></div></td></tr><tr><td style="font-weight:bold;vertical-align:top;">max-age</td><td style="vertical-align:top;">:</td><td><div></div></td></tr><tr><td style="font-weight:bold;vertical-align:top;">path</td><td style="vertical-align:top;">:</td><td><div>/</div></td></tr><tr><td style="font-weight:bold;vertical-align:top;">secure</td><td style="vertical-align:top;">:</td><td><div></div></td></tr><tr><td style="font-weight:bold;vertical-align:top;">version</td><td style="vertical-align:top;">:</td><td><div></div></td></tr></table></div></td></tr></table></div></td></tr><tr><td style="font-weight:bold;vertical-align:top;">delimiters</td><td style="vertical-align:top;">:</td><td><div><table><tr><td><div>{{</div></td></tr><tr><td><div>}}</div></td></tr></table></div></td></tr><tr><td style="font-weight:bold;vertical-align:top;">files</td><td style="vertical-align:top;">:</td><td><div><table><tr><td><div>/HiddenSC/static/js/jquery.js</div></td></tr><tr><td><div>/HiddenSC/static/css/calendar.css</div></td></tr><tr><td><div>/HiddenSC/static/js/calendar.js</div></td></tr><tr><td><div>/HiddenSC/static/js/web2py.js</div></td></tr></table></div></td></tr><tr><td style="font-weight:bold;vertical-align:top;">flash</td><td style="vertical-align:top;">:</td><td><div></div></td></tr><tr><td style="font-weight:bold;vertical-align:top;">form_label_separator</td><td style="vertical-align:top;">:</td><td><div></div></td></tr><tr><td style="font-weight:bold;vertical-align:top;">formstyle</td><td style="vertical-align:top;">:</td><td><div>bootstrap3_inline</div></td></tr><tr><td style="font-weight:bold;vertical-align:top;">generic_patterns</td><td style="vertical-align:top;">:</td><td><div><table><tr><td><div>*</div></td></tr></table></div></td></tr><tr><td style="font-weight:bold;vertical-align:top;">google_analytics_id</td><td style="vertical-align:top;">:</td><td><div>None</div></td></tr><tr><td style="font-weight:bold;vertical-align:top;">headers</td><td style="vertical-align:top;">:</td><td><div><table><tr><td style="font-weight:bold;vertical-align:top;">X-Powered-By</td><td style="vertical-align:top;">:</td><td><div>web2py</div></td></tr></table></div></td></tr><tr><td style="font-weight:bold;vertical-align:top;">logo</td><td style="vertical-align:top;">:</td><td><div><a class="navbar-brand" href="http://www.web2py.com/" id="web2py-logo"><b>web<span>2</span>py</b>&trade;&nbsp;</a></div></td></tr><tr><td style="font-weight:bold;vertical-align:top;">menu</td><td style="vertical-align:top;">:</td><td><div><table><tr><td><div><table><tr><td><div>Home</div></td></tr><tr><td><div>False</div></td></tr><tr><td><div>/HiddenSC/default/index</div></td></tr><tr><td><div><table></table></div></td></tr></table></div></td></tr><tr><td><div><table><tr><td><div>My Sites</div></td></tr><tr><td><div>False</div></td></tr><tr><td><div>/admin/default/site</div></td></tr></table></div></td></tr><tr><td><div><table><tr><td><div>This App</div></td></tr><tr><td><div>False</div></td></tr><tr><td><div>#</div></td></tr><tr><td><div><table><tr><td><div><table><tr><td><div>Design</div></td></tr><tr><td><div>False</div></td></tr><tr><td><div>/admin/default/design/HiddenSC</div></td></tr></table></div></td></tr><tr><td><div><li class="divider"></li></div></td></tr><tr><td><div><table><tr><td><div>Controller</div></td></tr><tr><td><div>False</div></td></tr><tr><td><div>/admin/default/edit/HiddenSC/controllers/default.py</div></td></tr></table></div></td></tr><tr><td><div><table><tr><td><div>View</div></td></tr><tr><td><div>False</div></td></tr><tr><td><div>/admin/default/edit/HiddenSC/views/default/show_posts.html</div></td></tr></table></div></td></tr><tr><td><div><table><tr><td><div>DB Model</div></td></tr><tr><td><div>False</div></td></tr><tr><td><div>/admin/default/edit/HiddenSC/models/db.py</div></td></tr></table></div></td></tr><tr><td><div><table><tr><td><div>Menu Model</div></td></tr><tr><td><div>False</div></td></tr><tr><td><div>/admin/default/edit/HiddenSC/models/menu.py</div></td></tr></table></div></td></tr><tr><td><div><table><tr><td><div>Config.ini</div></td></tr><tr><td><div>False</div></td></tr><tr><td><div>/admin/default/edit/HiddenSC/private/appconfig.ini</div></td></tr></table></div></td></tr><tr><td><div><table><tr><td><div>Layout</div></td></tr><tr><td><div>False</div></td></tr><tr><td><div>/admin/default/edit/HiddenSC/views/layout.html</div></td></tr></table></div></td></tr><tr><td><div><table><tr><td><div>Stylesheet</div></td></tr><tr><td><div>False</div></td></tr><tr><td><div>/admin/default/edit/HiddenSC/static/css/web2py-bootstrap3.css</div></td></tr></table></div></td></tr><tr><td><div><table><tr><td><div>Database</div></td></tr><tr><td><div>False</div></td></tr><tr><td><div>/HiddenSC/appadmin/index</div></td></tr></table></div></td></tr><tr><td><div><table><tr><td><div>Errors</div></td></tr><tr><td><div>False</div></td></tr><tr><td><div>/admin/default/errors/HiddenSC</div></td></tr></table></div></td></tr><tr><td><div><table><tr><td><div>About</div></td></tr><tr><td><div>False</div></td></tr><tr><td><div>/admin/default/about/HiddenSC</div></td></tr></table></div></td></tr></table></div></td></tr></table></div></td></tr><tr><td><div><table><tr><td><div>web2py.com</div></td></tr><tr><td><div>False</div></td></tr><tr><td><div>#</div></td></tr><tr><td><div><table><tr><td><div><table><tr><td><div>Download</div></td></tr><tr><td><div>False</div></td></tr><tr><td><div>http://www.web2py.com/examples/default/download</div></td></tr></table></div></td></tr><tr><td><div><table><tr><td><div>Support</div></td></tr><tr><td><div>False</div></td></tr><tr><td><div>http://www.web2py.com/examples/default/support</div></td></tr></table></div></td></tr><tr><td><div><table><tr><td><div>Demo</div></td></tr><tr><td><div>False</div></td></tr><tr><td><div>http://web2py.com/demo_admin</div></td></tr></table></div></td></tr><tr><td><div><table><tr><td><div>Quick Examples</div></td></tr><tr><td><div>False</div></td></tr><tr><td><div>http://web2py.com/examples/default/examples</div></td></tr></table></div></td></tr><tr><td><div><table><tr><td><div>FAQ</div></td></tr><tr><td><div>False</div></td></tr><tr><td><div>http://web2py.com/AlterEgo</div></td></tr></table></div></td></tr><tr><td><div><table><tr><td><div>Videos</div></td></tr><tr><td><div>False</div></td></tr><tr><td><div>http://www.web2py.com/examples/default/videos/</div></td></tr></table></div></td></tr><tr><td><div><table><tr><td><div>Free Applications</div></td></tr><tr><td><div>False</div></td></tr><tr><td><div>http://web2py.com/appliances</div></td></tr></table></div></td></tr><tr><td><div><table><tr><td><div>Plugins</div></td></tr><tr><td><div>False</div></td></tr><tr><td><div>http://web2py.com/plugins</div></td></tr></table></div></td></tr><tr><td><div><table><tr><td><div>Recipes</div></td></tr><tr><td><div>False</div></td></tr><tr><td><div>http://web2pyslices.com/</div></td></tr></table></div></td></tr></table></div></td></tr></table></div></td></tr><tr><td><div><table><tr><td><div>Documentation</div></td></tr><tr><td><div>False</div></td></tr><tr><td><div>#</div></td></tr><tr><td><div><table><tr><td><div><table><tr><td><div>Online book</div></td></tr><tr><td><div>False</div></td></tr><tr><td><div>http://www.web2py.com/book</div></td></tr></table></div></td></tr><tr><td><div><li class="divider"></li></div></td></tr><tr><td><div><table><tr><td><div>Preface</div></td></tr><tr><td><div>False</div></td></tr><tr><td><div>http://www.web2py.com/book/default/chapter/00</div></td></tr></table></div></td></tr><tr><td><div><table><tr><td><div>Introduction</div></td></tr><tr><td><div>False</div></td></tr><tr><td><div>http://www.web2py.com/book/default/chapter/01</div></td></tr></table></div></td></tr><tr><td><div><table><tr><td><div>Python</div></td></tr><tr><td><div>False</div></td></tr><tr><td><div>http://www.web2py.com/book/default/chapter/02</div></td></tr></table></div></td></tr><tr><td><div><table><tr><td><div>Overview</div></td></tr><tr><td><div>False</div></td></tr><tr><td><div>http://www.web2py.com/book/default/chapter/03</div></td></tr></table></div></td></tr><tr><td><div><table><tr><td><div>The Core</div></td></tr><tr><td><div>False</div></td></tr><tr><td><div>http://www.web2py.com/book/default/chapter/04</div></td></tr></table></div></td></tr><tr><td><div><table><tr><td><div>The Views</div></td></tr><tr><td><div>False</div></td></tr><tr><td><div>http://www.web2py.com/book/default/chapter/05</div></td></tr></table></div></td></tr><tr><td><div><table><tr><td><div>Database</div></td></tr><tr><td><div>False</div></td></tr><tr><td><div>http://www.web2py.com/book/default/chapter/06</div></td></tr></table></div></td></tr><tr><td><div><table><tr><td><div>Forms and Validators</div></td></tr><tr><td><div>False</div></td></tr><tr><td><div>http://www.web2py.com/book/default/chapter/07</div></td></tr></table></div></td></tr><tr><td><div><table><tr><td><div>Email and SMS</div></td></tr><tr><td><div>False</div></td></tr><tr><td><div>http://www.web2py.com/book/default/chapter/08</div></td></tr></table></div></td></tr><tr><td><div><table><tr><td><div>Access Control</div></td></tr><tr><td><div>False</div></td></tr><tr><td><div>http://www.web2py.com/book/default/chapter/09</div></td></tr></table></div></td></tr><tr><td><div><table><tr><td><div>Services</div></td></tr><tr><td><div>False</div></td></tr><tr><td><div>http://www.web2py.com/book/default/chapter/10</div></td></tr></table></div></td></tr><tr><td><div><table><tr><td><div>Ajax Recipes</div></td></tr><tr><td><div>False</div></td></tr><tr><td><div>http://www.web2py.com/book/default/chapter/11</div></td></tr></table></div></td></tr><tr><td><div><table><tr><td><div>Components and Plugins</div></td></tr><tr><td><div>False</div></td></tr><tr><td><div>http://www.web2py.com/book/default/chapter/12</div></td></tr></table></div></td></tr><tr><td><div><table><tr><td><div>Deployment Recipes</div></td></tr><tr><td><div>False</div></td></tr><tr><td><div>http://www.web2py.com/book/default/chapter/13</div></td></tr></table></div></td></tr><tr><td><div><table><tr><td><div>Other Recipes</div></td></tr><tr><td><div>False</div></td></tr><tr><td><div>http://www.web2py.com/book/default/chapter/14</div></td></tr></table></div></td></tr><tr><td><div><table><tr><td><div>Helping web2py</div></td></tr><tr><td><div>False</div></td></tr><tr><td><div>http://www.web2py.com/book/default/chapter/15</div></td></tr></table></div></td></tr><tr><td><div><table><tr><td><div>Buy web2py\'s book</div></td></tr><tr><td><div>False</div></td></tr><tr><td><div>http://stores.lulu.com/web2py</div></td></tr></table></div></td></tr></table></div></td></tr></table></div></td></tr><tr><td><div><table><tr><td><div>Community</div></td></tr><tr><td><div>False</div></td></tr><tr><td><div>None</div></td></tr><tr><td><div><table><tr><td><div><table><tr><td><div>Groups</div></td></tr><tr><td><div>False</div></td></tr><tr><td><div>http://www.web2py.com/examples/default/usergroups</div></td></tr></table></div></td></tr><tr><td><div><table><tr><td><div>Twitter</div></td></tr><tr><td><div>False</div></td></tr><tr><td><div>http://twitter.com/web2py</div></td></tr></table></div></td></tr><tr><td><div><table><tr><td><div>Live Chat</div></td></tr><tr><td><div>False</div></td></tr><tr><td><div>http://webchat.freenode.net/?channels=web2py</div></td></tr></table></div></td></tr></table></div></td></tr></table></div></td></tr></table></div></td></tr><tr><td style="font-weight:bold;vertical-align:top;">meta</td><td style="vertical-align:top;">:</td><td><div><table><tr><td style="font-weight:bold;vertical-align:top;">author</td><td style="vertical-align:top;">:</td><td><div>Your Name &lt;you@example.com&gt;</div></td></tr><tr><td style="font-weight:bold;vertical-align:top;">description</td><td style="vertical-align:top;">:</td><td><div>a cool new app</div></td></tr><tr><td style="font-weight:bold;vertical-align:top;">generator</td><td style="vertical-align:top;">:</td><td><div>Web2py Web Framework</div></td></tr><tr><td style="font-weight:bold;vertical-align:top;">keywords</td><td style="vertical-align:top;">:</td><td><div>web2py, python, framework</div></td></tr></table></div></td></tr><tr><td style="font-weight:bold;vertical-align:top;">models_to_run</td><td style="vertical-align:top;">:</td><td><div><table><tr><td><div>^\\w+\\.py$</div></td></tr><tr><td><div>^default/\\w+\\.py$</div></td></tr><tr><td><div>^default/show_posts/\\w+\\.py$</div></td></tr></table></div></td></tr><tr><td style="font-weight:bold;vertical-align:top;">postprocessing</td><td style="vertical-align:top;">:</td><td><div><table></table></div></td></tr><tr><td style="font-weight:bold;vertical-align:top;">session_client</td><td style="vertical-align:top;">:</td><td><div>127.0.0.1</div></td></tr><tr><td style="font-weight:bold;vertical-align:top;">session_cookie_compression_level</td><td style="vertical-align:top;">:</td><td><div>None</div></td></tr><tr><td style="font-weight:bold;vertical-align:top;">session_cookie_expires</td><td style="vertical-align:top;">:</td><td><div>None</div></td></tr><tr><td style="font-weight:bold;vertical-align:top;">session_cookie_key</td><td style="vertical-align:top;">:</td><td><div>None</div></td></tr><tr><td style="font-weight:bold;vertical-align:top;">session_data_name</td><td style="vertical-align:top;">:</td><td><div>session_data_hiddensc</div></td></tr><tr><td style="font-weight:bold;vertical-align:top;">session_file</td><td style="vertical-align:top;">:</td><td><div>&lt;open file &#x27;C:\\\\Users\\\\bryce\\\\Desktop\\\\web2py\\\\applications\\\\HiddenSC\\\\sessions\\\\187\\\\1c7\\\\127.0.0.1-20b43121-c9aa-4bb1-b40a-7573dd7a9385&#x27;, mode &#x27;rb+&#x27; at 0x09651A70&gt;</div></td></tr><tr><td style="font-weight:bold;vertical-align:top;">session_filename</td><td style="vertical-align:top;">:</td><td><div>C:\\Users\\bryce\\Desktop\\web2py\\applications\\HiddenSC\\sessions\\127.0.0.1-20b43121-c9aa-4bb1-b40a-7573dd7a9385</div></td></tr><tr><td style="font-weight:bold;vertical-align:top;">session_hash</td><td style="vertical-align:top;">:</td><td><div>5b805ee11c1355abda7cab1eff8d1fe8</div></td></tr><tr><td style="font-weight:bold;vertical-align:top;">session_id</td><td style="vertical-align:top;">:</td><td><div>127.0.0.1-20b43121-c9aa-4bb1-b40a-7573dd7a9385</div></td></tr><tr><td style="font-weight:bold;vertical-align:top;">session_id_name</td><td style="vertical-align:top;">:</td><td><div>session_id_hiddensc</div></td></tr><tr><td style="font-weight:bold;vertical-align:top;">session_locked</td><td style="vertical-align:top;">:</td><td><div>True</div></td></tr><tr><td style="font-weight:bold;vertical-align:top;">session_masterapp</td><td style="vertical-align:top;">:</td><td><div>HiddenSC</div></td></tr><tr><td style="font-weight:bold;vertical-align:top;">session_new</td><td style="vertical-align:top;">:</td><td><div>False</div></td></tr><tr><td style="font-weight:bold;vertical-align:top;">session_storage_type</td><td style="vertical-align:top;">:</td><td><div>file</div></td></tr><tr><td style="font-weight:bold;vertical-align:top;">status</td><td style="vertical-align:top;">:</td><td><div>200</div></td></tr><tr><td style="font-weight:bold;vertical-align:top;">subtitle</td><td style="vertical-align:top;">:</td><td><div></div></td></tr><tr><td style="font-weight:bold;vertical-align:top;">title</td><td style="vertical-align:top;">:</td><td><div>Hiddensc</div></td></tr><tr><td style="font-weight:bold;vertical-align:top;">view</td><td style="vertical-align:top;">:</td><td><div>default/show_posts.html</div></td></tr></table></div>'
tRp133
sS'locals'
p134
(dp135
S'Service'
p136
S"<class 'gluon.tools.Service'>"
p137
sS'FORMAT'
p138
S"'%(asctime)s %(levelname)s %(process)s %(thread)s %(funcName)s():%(lineno)d %(message)s'"
p139
sS'OBJECT'
p140
S"<class 'gluon.html.OBJECT'>"
p141
sS'datetime'
p142
S"<type 'datetime.datetime'>"
p143
sg126
S"<Storage {'_formkey[posts/create]': ['faad5c69-8...gin]': ['7074b00d-ace6-4714-96a3-3af0f6a25b36']}>"
p144
sS'LINK'
p145
S"<class 'gluon.html.LINK'>"
p146
sS'BR'
p147
S"<class 'gluon.html.BR'>"
p148
sS'local_import'
p149
S'<function <lambda>>'
p150
sS'OPTGROUP'
p151
S"<class 'gluon.html.OPTGROUP'>"
p152
sS'__package__'
p153
S'None'
p154
sS'PRE'
p155
S"<class 'gluon.html.PRE'>"
p156
sS'IS_INT_IN_RANGE'
p157
S"<class 'gluon.validators.IS_INT_IN_RANGE'>"
p158
sS'left_sidebar_enabled'
p159
S'False'
p160
sS'IS_LOWER'
p161
S"<class 'gluon.validators.IS_LOWER'>"
p162
sS'IS_STRONG'
p163
S"<class 'gluon.validators.IS_STRONG'>"
p164
sS'cache'
p165
S'<gluon.cache.Cache object>'
p166
sS'IS_IN_DB'
p167
S"<class 'gluon.validators.IS_IN_DB'>"
p168
sS'TAG'
p169
S'<gluon.html.__TAG__ object>'
p170
sS'SQLField'
p171
S"<class 'pydal.objects.Field'>"
p172
sS'mail'
p173
S'<gluon.tools.Mail object>'
p174
sS'logger'
p175
S'<logging.Logger object>'
p176
sS'BODY'
p177
S"<class 'gluon.html.BODY'>"
p178
sS'IS_DATE_IN_RANGE'
p179
S"<class 'gluon.validators.IS_DATE_IN_RANGE'>"
p180
sS'IFRAME'
p181
S"<class 'gluon.html.IFRAME'>"
p182
sS'URL'
p183
S'<function URL>'
p184
sS'__file__'
p185
S"r'C:\\Users\\bryce\\Desktop\\web2py\\applications\\HiddenSC\\views\\default/show_posts.html'"
p186
sS'db'
p187
S'<DAL uri="sqlite://storage.sqlite">'
p188
sS'auth'
p189
S'<gluon.tools.Auth object>'
p190
sS'P'
S"<class 'gluon.html.P'>"
p191
sS'TFOOT'
p192
S"<class 'gluon.html.TFOOT'>"
p193
sS'timedelta'
p194
S"<type 'datetime.timedelta'>"
p195
sS'XHTML'
p196
S"<class 'gluon.html.XHTML'>"
p197
sS'now'
p198
S'datetime.datetime(2015, 12, 1, 3, 13, 4, 49000)'
p199
sS'ON'
p200
S'True'
p201
sS'OL'
p202
S"<class 'gluon.html.OL'>"
p203
sS'TEXTAREA'
p204
S"<class 'gluon.html.TEXTAREA'>"
p205
sS'MENU'
p206
S"<class 'gluon.html.MENU'>"
p207
sS'EM'
p208
S"<class 'gluon.html.EM'>"
p209
sS'CODE'
p210
S"<class 'gluon.html.CODE'>"
p211
sS'HTTP'
p212
S"<class 'gluon.http.HTTP'>"
p213
sS'HR'
p214
S"<class 'gluon.html.HR'>"
p215
sS'IS_DATETIME'
p216
S"<class 'gluon.validators.IS_DATETIME'>"
p217
sS'STYLE'
p218
S"<class 'gluon.html.STYLE'>"
p219
sS'LABEL'
p220
S"<class 'gluon.html.LABEL'>"
p221
sS'CLEANUP'
p222
S"<class 'gluon.validators.CLEANUP'>"
p223
sS'plugins'
p224
S'<gluon.tools.PluginManager object>'
p225
sS'SELECT'
p226
S"<class 'gluon.html.SELECT'>"
p227
sS'CENTER'
p228
S"<class 'gluon.html.CENTER'>"
p229
sS'prettydate'
p230
S'<function prettydate>'
p231
sS'Auth'
p232
S"<class 'gluon.tools.Auth'>"
p233
sS'DEVELOPMENT_MENU'
p234
g201
sS'__builtins__'
p235
S"{'ArithmeticError': <type 'exceptions.ArithmeticError'>, 'AssertionError': <type 'exceptions.AssertionError'>, 'AttributeError': <type 'exceptions.AttributeError'>, 'BaseException': <type 'exceptions.BaseException'>, 'BufferError': <type 'exceptions.BufferError'>, 'BytesWarning': <type 'exceptions.BytesWarning'>, 'DeprecationWarning': <type 'exceptions.DeprecationWarning'>, 'EOFError': <type 'exceptions.EOFError'>, 'Ellipsis': Ellipsis, 'EnvironmentError': <type 'exceptions.EnvironmentError'>, ...}"
p236
sS'HTML'
p237
S"<class 'gluon.html.HTML'>"
p238
sS'SQLFORM'
p239
S"<class 'gluon.sqlhtml.SQLFORM'>"
p240
sS'LOAD'
p241
S'<function LOAD>'
p242
sS'redirect'
p243
S'<function redirect>'
p244
sS'FIELDSET'
p245
S"<class 'gluon.html.FIELDSET'>"
p246
sS'IS_EQUAL_TO'
p247
S"<class 'gluon.validators.IS_EQUAL_TO'>"
p248
sS'post_id'
p249
S"<Row {'body': 'fuck', 'user_id': 2L, 'title': 'h...067.jpg', 'image4': '', 'id': 66L, 'image5': ''}>"
p250
sS'embed64'
p251
S'<function embed64>'
p252
sS'in_production'
p253
g160
sS'IS_LIST_OF'
p254
S"<class 'gluon.validators.IS_LIST_OF'>"
p255
sS'INPUT'
p256
S"<class 'gluon.html.INPUT'>"
p257
sS'EMBED'
p258
S"<class 'gluon.html.EMBED'>"
p259
sS'_'
S'<function _>'
p260
sS'FORM'
p261
S"<class 'gluon.html.FORM'>"
p262
sS'logging'
p263
S"<module 'logging' from 'C:\\Python27\\lib\\logging\\__init__.pyc'>"
p264
sS'myconf'
p265
S"{'forms': {'formstyle': 'bootstrap3_inline', 'se...'you@gmail.com', 'server': 'smtp.gmail.com:587'}}"
p266
sS'H2'
p267
S"<class 'gluon.html.H2'>"
p268
sS'H3'
p269
S"<class 'gluon.html.H3'>"
p270
sS'AppConfig'
p271
S'<function AppConfig>'
p272
sS'H1'
p273
S"<class 'gluon.html.H1'>"
p274
sS'H6'
p275
S"<class 'gluon.html.H6'>"
p276
sS'H4'
p277
S"<class 'gluon.html.H4'>"
p278
sS'H5'
p279
S"<class 'gluon.html.H5'>"
p280
sS'UL'
p281
S"<class 'gluon.html.UL'>"
p282
sS'IS_UPPER'
p283
S"<class 'gluon.validators.IS_UPPER'>"
p284
sS'xmlescape'
p285
S'<function xmlescape>'
p286
sS'IS_TIME'
p287
S"<class 'gluon.validators.IS_TIME'>"
p288
sS'OPTION'
p289
S"<class 'gluon.html.OPTION'>"
p290
sS'TITLE'
p291
S"<class 'gluon.html.TITLE'>"
p292
sS'CRYPT'
p293
S"<class 'gluon.validators.CRYPT'>"
p294
sS'IS_EMPTY_OR'
p295
S"<class 'gluon.validators.IS_EMPTY_OR'>"
p296
sS'MARKMIN'
p297
S"<class 'gluon.html.MARKMIN'>"
p298
sS'__name__'
p299
S"'__restricted__'"
p300
sS'STRONG'
p301
S"<class 'gluon.html.STRONG'>"
p302
sS'COL'
p303
S"<class 'gluon.html.COL'>"
p304
sS'mc1'
p305
S"'col-md-9'"
p306
sS'mc0'
p307
S"'col-md-12'"
p308
sS'service'
p309
S'<gluon.tools.Service object>'
p310
sS'SCRIPT'
p311
S"<class 'gluon.html.SCRIPT'>"
p312
sS'TABLE'
p313
S"<class 'gluon.html.TABLE'>"
p314
sS'IS_IPV4'
p315
S"<class 'gluon.validators.IS_IPV4'>"
p316
sS'IS_LENGTH'
p317
S"<class 'gluon.validators.IS_LENGTH'>"
p318
sS'IS_IPV6'
p319
S"<class 'gluon.validators.IS_IPV6'>"
p320
sS'XML'
p321
S"<class 'gluon.html.XML'>"
p322
sS'B'
S"<class 'gluon.html.B'>"
p323
sS'IMG'
p324
S"<class 'gluon.html.IMG'>"
p325
sS'SQLTABLE'
p326
S"<class 'gluon.sqlhtml.SQLTABLE'>"
p327
sS'IS_MATCH'
p328
S"<class 'gluon.validators.IS_MATCH'>"
p329
sS'IS_ALPHANUMERIC'
p330
S"<class 'gluon.validators.IS_ALPHANUMERIC'>"
p331
sS'SPAN'
p332
S"<class 'gluon.html.SPAN'>"
p333
sS'IS_JSON'
p334
S"<class 'gluon.validators.IS_JSON'>"
p335
sS'IS_IPADDRESS'
p336
S"<class 'gluon.validators.IS_IPADDRESS'>"
p337
sS'IS_SLUG'
p338
S"<class 'gluon.validators.IS_SLUG'>"
p339
sS'BEAUTIFY'
p340
S"<class 'gluon.html.BEAUTIFY'>"
p341
sS'META'
p342
S"<class 'gluon.html.META'>"
p343
sS'SQLDB'
p344
S"<class 'pydal.base.DAL'>"
p345
sS'BUTTON'
p346
S"<class 'gluon.html.BUTTON'>"
p347
sS'IS_DATE'
p348
S"<class 'gluon.validators.IS_DATE'>"
p349
sS'IS_EMAIL'
p350
S"<class 'gluon.validators.IS_EMAIL'>"
p351
sS'middle_column'
p352
S"'col-md-12'"
p353
sS'IS_NOT_EMPTY'
p354
S"<class 'gluon.validators.IS_NOT_EMPTY'>"
p355
sS'IS_FLOAT_IN_RANGE'
p356
S"<class 'gluon.validators.IS_FLOAT_IN_RANGE'>"
p357
sS'TBODY'
p358
S"<class 'gluon.html.TBODY'>"
p359
sS'CAT'
p360
S"<class 'gluon.html.CAT'>"
p361
sS'Field'
p362
S"<class 'pydal.objects.Field'>"
p363
sS'mc2'
p364
S"'col-md-6'"
p365
sS'IS_LIST_OF_EMAILS'
p366
S"<class 'gluon.validators.IS_LIST_OF_EMAILS'>"
p367
sS'DIV'
p368
S"<class 'gluon.html.DIV'>"
p369
sS'LEGEND'
p370
S"<class 'gluon.html.LEGEND'>"
p371
sS'board_id'
p372
S"<Row {'title': 'Haunted', 'posts': <Set (posts.b...me.datetime(2015, 11, 8, 23, 32, 52), 'id': 36L}>"
p373
sS'COLGROUP'
p374
S"<class 'gluon.html.COLGROUP'>"
p375
sS'DAL'
p376
S"<class 'pydal.base.DAL'>"
p377
sS'ASSIGNJS'
p378
S'<function ASSIGNJS>'
p379
sS'TR'
p380
S"<class 'gluon.html.TR'>"
p381
sS'LI'
p382
S"<class 'gluon.html.LI'>"
p383
sS'right_sidebar_enabled'
p384
g160
sS'TH'
p385
S"<class 'gluon.html.TH'>"
p386
sS'TD'
p387
S"<class 'gluon.html.TD'>"
p388
sS'PluginManager'
p389
S"<class 'gluon.tools.PluginManager'>"
p390
sS'IS_URL'
p391
S"<class 'gluon.validators.IS_URL'>"
p392
sS'A'
S"<class 'gluon.html.A'>"
p393
sS'HEAD'
p394
S"<class 'gluon.html.HEAD'>"
p395
sS'IS_DATETIME_IN_RANGE'
p396
S"<class 'gluon.validators.IS_DATETIME_IN_RANGE'>"
p397
sS'IS_IMAGE'
p398
S"<class 'gluon.validators.IS_IMAGE'>"
p399
sS'I'
S"<class 'gluon.html.I'>"
p400
sS'icon_trash'
p401
S'<gluon.html.I object>'
p402
sS'yesterday'
p403
S'datetime.datetime(2015, 11, 30, 3, 13, 4, 49000)'
p404
sS'icon_pencil'
p405
S'<gluon.html.I object>'
p406
sS'sys'
p407
S"<module 'sys' (built-in)>"
p408
sS'IS_NOT_IN_DB'
p409
S"<class 'gluon.validators.IS_NOT_IN_DB'>"
p410
sS'post_board_id'
p411
S"'34'"
p412
sS'board_list'
p413
S'<Rows (3)>'
p414
sg132
S"<Storage {'body': <cStringIO.StringO object at 0... 0x09219170>, 'view': 'default/show_posts.html'}>"
p415
sS'THEAD'
p416
S"<class 'gluon.html.THEAD'>"
p417
sS'ANY_OF'
p418
S"<class 'gluon.validators.ANY_OF'>"
p419
sS'IS_NULL_OR'
p420
S"<class 'gluon.validators.IS_EMPTY_OR'>"
p421
sS'post_list'
p422
S'<Rows (2)>'
p423
sg56
S"<Storage {'_vars': <Storage {}>, 'function': 'sh...yce\\\\Desktop\\\\web2py\\\\applications\\\\HiddenSC\\\\'}>"
p424
sS'IS_EXPR'
p425
S"<class 'gluon.validators.IS_EXPR'>"
p426
sS'T'
S'<gluon.languages.translator object>'
p427
sS'IS_IN_SET'
p428
S"<class 'gluon.validators.IS_IN_SET'>"
p429
sS'IS_UPLOAD_FILENAME'
p430
S"<class 'gluon.validators.IS_UPLOAD_FILENAME'>"
p431
sS'TT'
p432
S"<class 'gluon.html.TT'>"
p433
sS'IS_DECIMAL_IN_RANGE'
p434
S"<class 'gluon.validators.IS_DECIMAL_IN_RANGE'>"
p435
sssS'traceback'
p436
S'Traceback (most recent call last):\n  File "C:\\Users\\bryce\\Desktop\\web2py\\gluon\\restricted.py", line 227, in restricted\n    exec ccode in environment\n  File "C:\\Users\\bryce\\Desktop\\web2py\\applications\\HiddenSC\\views\\default/show_posts.html", line 114, in <module>\n    ================================================== -->\nTypeError: \'int\' object is not iterable\n'
p437
s.