(dp1
S'output'
p2
S'Unable to find the file'
p3
sS'layer'
p4
S'default/post_page.html'
p5
sS'code'
p6
S''
sS'snapshot'
p7
(dp8
S'exception'
p9
(dp10
S'__getslice__'
p11
S"<method-wrapper '__getslice__' of exceptions.IOError object>"
p12
sS'__str__'
p13
S"<method-wrapper '__str__' of exceptions.IOError object>"
p14
sS'__reduce__'
p15
S'<built-in method __reduce__ of exceptions.IOError object>'
p16
sS'__dict__'
p17
S'{}'
p18
sS'__sizeof__'
p19
S'<built-in method __sizeof__ of exceptions.IOError object>'
p20
sS'__init__'
p21
S"<method-wrapper '__init__' of exceptions.IOError object>"
p22
sS'__setattr__'
p23
S"<method-wrapper '__setattr__' of exceptions.IOError object>"
p24
sS'__reduce_ex__'
p25
S'<built-in method __reduce_ex__ of exceptions.IOError object>'
p26
sS'__new__'
p27
S'<built-in method __new__ of type object>'
p28
sS'errno'
p29
S'13'
p30
sS'__format__'
p31
S'<built-in method __format__ of exceptions.IOError object>'
p32
sS'__class__'
p33
S"<type 'exceptions.IOError'>"
p34
sS'filename'
p35
S"r'C:\\Users\\bryce\\Desktop\\web2py\\applications\\HiddenSC\\views\\default/post_page.html'"
p36
sS'__doc__'
p37
S"'I/O operation failed.'"
p38
sS'__getitem__'
p39
S"<method-wrapper '__getitem__' of exceptions.IOError object>"
p40
sS'__setstate__'
p41
S'<built-in method __setstate__ of exceptions.IOError object>'
p42
sS'__getattribute__'
p43
S"<method-wrapper '__getattribute__' of exceptions.IOError object>"
p44
sS'args'
p45
S"(13, 'Permission denied')"
p46
sS'__subclasshook__'
p47
S'<built-in method __subclasshook__ of type object>'
p48
sS'__unicode__'
p49
S'<built-in method __unicode__ of exceptions.IOError object>'
p50
sS'strerror'
p51
S"'Permission denied'"
p52
sS'__delattr__'
p53
S"<method-wrapper '__delattr__' of exceptions.IOError object>"
p54
sS'__repr__'
p55
S"<method-wrapper '__repr__' of exceptions.IOError object>"
p56
sS'__hash__'
p57
S"<method-wrapper '__hash__' of exceptions.IOError object>"
p58
ssS'evalue'
p59
S"[Errno 13] Permission denied: 'C:\\\\Users\\\\bryce\\\\Desktop\\\\web2py\\\\applications\\\\HiddenSC\\\\views\\\\default/post_page.html'"
p60
sS'frames'
p61
(lp62
(dp63
S'file'
p64
S'C:\\Users\\bryce\\Desktop\\web2py\\gluon\\template.py'
p65
sS'dump'
p66
(dp67
S'fp'
p68
S'undefined'
p69
sS'builtinopen'
p70
S'<built-in function open>'
p71
sS'filename'
p72
S"'default/post_page.html'"
p73
sS'global os'
p74
S"<module 'os' from 'C:\\Python27\\lib\\os.pyc'>"
p75
sS'path'
p76
S"r'C:\\Users\\bryce\\Desktop\\web2py\\applications\\HiddenSC\\views'"
p77
sS'os.path.join'
p78
S'<function join>'
p79
sS'os.path'
p80
S"<module 'ntpath' from 'C:\\Python27\\lib\\ntpath.pyc'>"
p81
ssS'lnum'
p82
I788
sS'lines'
p83
(dp84
I783
S'    """'
p85
sI784
S''
sI785
S'    # First, if we have a str try to open the file'
p86
sI786
S'    if isinstance(filename, str):'
p87
sI787
S'        try:'
p88
sI788
S"            fp = open(os.path.join(path, filename), 'rb')"
p89
sI789
S'            text = fp.read()'
p90
sI790
S'            fp.close()'
p91
sI791
S'        except IOError:'
p92
sI792
S"            raise RestrictedError(filename, '', 'Unable to find the file')"
p93
ssS'call'
p94
S"(filename='default/post_page.html', path=r'C:\\Users\\bryce\\Desktop\\web2py\\applications\\HiddenSC\\views', context={'A': <class 'gluon.html.A'>, 'ANY_OF': <class 'gluon.validators.ANY_OF'>, 'ASSIGNJS': <function ASSIGNJS>, 'AppConfig': <function AppConfig>, 'Auth': <class 'gluon.tools.Auth'>, 'B': <class 'gluon.html.B'>, 'BEAUTIFY': <class 'gluon.html.BEAUTIFY'>, 'BODY': <class 'gluon.html.BODY'>, 'BR': <class 'gluon.html.BR'>, 'BUTTON': <class 'gluon.html.BUTTON'>, ...}, lexers={}, delimiters=('{{', '}}'))"
p95
sS'func'
p96
S'parse_template'
p97
sasS'pyver'
p98
S'Python 2.7.10: C:\\Python27\\python.exe (prefix: C:\\Python27)'
p99
sS'etype'
p100
S"<type 'exceptions.IOError'>"
p101
sS'date'
p102
S'Tue Dec 01 22:13:05 2015'
p103
sS'locals'
p104
(dp105
S'delimiters'
p106
S"('{{', '}}')"
p107
sS'path'
p108
S"r'C:\\Users\\bryce\\Desktop\\web2py\\applications\\HiddenSC\\views'"
p109
sS'lexers'
p110
g18
sS'context'
p111
S"{'A': <class 'gluon.html.A'>, 'ANY_OF': <class 'gluon.validators.ANY_OF'>, 'ASSIGNJS': <function ASSIGNJS>, 'AppConfig': <function AppConfig>, 'Auth': <class 'gluon.tools.Auth'>, 'B': <class 'gluon.html.B'>, 'BEAUTIFY': <class 'gluon.html.BEAUTIFY'>, 'BODY': <class 'gluon.html.BODY'>, 'BR': <class 'gluon.html.BR'>, 'BUTTON': <class 'gluon.html.BUTTON'>, ...}"
p112
sg35
S"'default/post_page.html'"
p113
sssS'traceback'
p114
S'Traceback (most recent call last):\n  File "C:\\Users\\bryce\\Desktop\\web2py\\gluon\\template.py", line 788, in parse_template\n    fp = open(os.path.join(path, filename), \'rb\')\nIOError: [Errno 13] Permission denied: \'C:\\\\Users\\\\bryce\\\\Desktop\\\\web2py\\\\applications\\\\HiddenSC\\\\views\\\\default/post_page.html\'\n'
p115
s.